
Hacklace.elf:     file format elf32-avr

Sections:
Idx Name          Size      VMA       LMA       File off  Algn
  0 .text         00000ff0  00000000  00000000  000000d4  2**1
                  CONTENTS, ALLOC, LOAD, READONLY, CODE
  1 .data         00000008  00800060  00000ff0  000010c4  2**0
                  CONTENTS, ALLOC, LOAD, DATA
  2 .bss          000000d1  00800068  00800068  000010cc  2**0
                  ALLOC
  3 .eeprom       00000100  00810000  00810000  000010cc  2**0
                  CONTENTS, ALLOC, LOAD, READONLY, DATA
  4 .fuse         00000003  00820000  00820000  000011cc  2**0
                  CONTENTS, ALLOC, LOAD, DATA
  5 .stab         00000840  00000000  00000000  000011d0  2**2
                  CONTENTS, READONLY, DEBUGGING
  6 .stabstr      0000014b  00000000  00000000  00001a10  2**0
                  CONTENTS, READONLY, DEBUGGING
  7 .debug_aranges 000000a8  00000000  00000000  00001b60  2**3
                  CONTENTS, READONLY, DEBUGGING
  8 .debug_info   00001258  00000000  00000000  00001c08  2**0
                  CONTENTS, READONLY, DEBUGGING
  9 .debug_abbrev 00000527  00000000  00000000  00002e60  2**0
                  CONTENTS, READONLY, DEBUGGING
 10 .debug_line   0000076b  00000000  00000000  00003387  2**0
                  CONTENTS, READONLY, DEBUGGING
 11 .debug_frame  00000268  00000000  00000000  00003af4  2**2
                  CONTENTS, READONLY, DEBUGGING
 12 .debug_str    000003a0  00000000  00000000  00003d5c  2**0
                  CONTENTS, READONLY, DEBUGGING
 13 .debug_loc    00000a45  00000000  00000000  000040fc  2**0
                  CONTENTS, READONLY, DEBUGGING
 14 .debug_ranges 00000030  00000000  00000000  00004b41  2**0
                  CONTENTS, READONLY, DEBUGGING

Disassembly of section .text:

00000000 <__vectors>:
   0:	2f c4       	rjmp	.+2142   	; 0x860 <__ctors_end>
   2:	49 c4       	rjmp	.+2194   	; 0x896 <__bad_interrupt>
   4:	48 c4       	rjmp	.+2192   	; 0x896 <__bad_interrupt>
   6:	47 c4       	rjmp	.+2190   	; 0x896 <__bad_interrupt>
   8:	46 c4       	rjmp	.+2188   	; 0x896 <__bad_interrupt>
   a:	45 c4       	rjmp	.+2186   	; 0x896 <__bad_interrupt>
   c:	44 c4       	rjmp	.+2184   	; 0x896 <__bad_interrupt>
   e:	de c6       	rjmp	.+3516   	; 0xdcc <__vector_7>
  10:	42 c4       	rjmp	.+2180   	; 0x896 <__bad_interrupt>
  12:	41 c4       	rjmp	.+2178   	; 0x896 <__bad_interrupt>
  14:	40 c4       	rjmp	.+2176   	; 0x896 <__bad_interrupt>
  16:	3f c4       	rjmp	.+2174   	; 0x896 <__bad_interrupt>
  18:	3e c4       	rjmp	.+2172   	; 0x896 <__bad_interrupt>
  1a:	53 c6       	rjmp	.+3238   	; 0xcc2 <__vector_13>
  1c:	78 c6       	rjmp	.+3312   	; 0xd0e <__vector_14>
  1e:	3b c4       	rjmp	.+2166   	; 0x896 <__bad_interrupt>
  20:	3a c4       	rjmp	.+2164   	; 0x896 <__bad_interrupt>
  22:	39 c4       	rjmp	.+2162   	; 0x896 <__bad_interrupt>
  24:	38 c4       	rjmp	.+2160   	; 0x896 <__bad_interrupt>
  26:	37 c4       	rjmp	.+2158   	; 0x896 <__bad_interrupt>
  28:	c7 c6       	rjmp	.+3470   	; 0xdb8 <__vector_20>
  2a:	fb c6       	rjmp	.+3574   	; 0xe22 <__vector_7+0x56>
  2c:	ff c6       	rjmp	.+3582   	; 0xe2c <__vector_7+0x60>
  2e:	05 c7       	rjmp	.+3594   	; 0xe3a <__vector_7+0x6e>
  30:	14 c7       	rjmp	.+3624   	; 0xe5a <__vector_7+0x8e>
  32:	18 c7       	rjmp	.+3632   	; 0xe64 <__vector_7+0x98>
  34:	22 c7       	rjmp	.+3652   	; 0xe7a <__vector_7+0xae>
  36:	35 c7       	rjmp	.+3690   	; 0xea2 <__vector_7+0xd6>
  38:	42 c7       	rjmp	.+3716   	; 0xebe <__vector_7+0xf2>
  3a:	5f c7       	rjmp	.+3774   	; 0xefa <__vector_7+0x12e>

0000003c <row_bit>:
  3c:	02 04 08 10 01 02 02                                .......

00000043 <row_port>:
  43:	01 01 02 01 00 00 02                                .......

0000004a <col_bit>:
  4a:	10 04 08 40 20                                      ...@ 

0000004f <col_port>:
  4f:	02 02 01 01 01                                      .....

00000054 <font>:
  54:	00 00 00 80 80 5f 80 80 80 80 03 00 03 80 80 14     ....._..........
  64:	7f 14 7f 14 24 2a 7f 2a 12 23 13 08 64 62 36 49     ....$*.*.#..db6I
  74:	56 20 50 05 03 80 80 80 1c 22 41 80 80 41 22 1c     V P......"A..A".
  84:	80 80 22 14 6b 14 22 08 08 3e 08 08 50 30 80 80     ..".k."..>..P0..
  94:	80 08 08 08 08 80 60 60 80 80 80 60 10 08 04 03     ......``...`....
  a4:	3e 41 41 3e 80 42 7f 40 80 80 62 51 49 46 80 22     >AA>.B.@..bQIF."
  b4:	41 49 36 80 18 14 12 7f 80 27 45 45 39 80 3c 4a     AI6......'EE9.<J
  c4:	49 31 80 01 71 0d 03 80 36 49 49 36 80 06 49 29     I1..q...6II6..I)
  d4:	1e 80 36 36 80 80 80 56 36 80 80 80 08 14 22 41     ..66...V6....."A
  e4:	80 14 14 14 14 80 41 22 14 08 80 02 51 09 06 80     ......A"....Q...
  f4:	32 49 79 41 3e 7e 09 09 7e 80 7f 49 49 36 80 3e     2IyA>~..~..II6.>
 104:	41 41 22 80 7f 41 41 3e 80 7f 49 49 41 80 7f 09     AA"..AA>..IIA...
 114:	09 01 80 3e 49 49 3a 80 7f 08 08 7f 80 41 7f 41     ...>II:......A.A
 124:	80 80 20 40 40 3f 80 7f 08 14 63 80 7f 40 40 40     .. @@?....c..@@@
 134:	80 7f 02 0c 02 7f 7f 06 18 7f 80 3e 41 41 3e 80     ...........>AA>.
 144:	7f 09 09 06 80 3e 41 21 5e 80 7f 09 19 66 80 26     .....>A!^....f.&
 154:	49 49 32 80 01 01 7f 01 01 3f 40 40 3f 80 07 18     II2......?@@?...
 164:	60 18 07 3f 40 38 40 3f 63 14 08 14 63 03 04 78     `..?@8@?c...c..x
 174:	04 03 61 59 45 43 80 7f 41 41 80 80 03 04 08 10     ..aYEC..AA......
 184:	60 41 41 7f 80 80 02 01 02 80 80 40 40 40 40 80     `AA........@@@@.
 194:	03 04 80 80 80 20 54 54 78 80 7f 48 48 30 80 38     ..... TTx..HH0.8
 1a4:	44 44 28 80 38 44 44 7f 80 38 54 54 48 80 04 7e     DD(.8DD..8TTH..~
 1b4:	05 01 80 48 54 54 38 80 7f 08 08 70 80 7a 80 80     ...HTT8....p.z..
 1c4:	80 80 20 40 3a 80 80 7f 08 14 62 80 41 7f 40 80     .. @:.....b.A.@.
 1d4:	80 7c 04 78 04 78 7c 04 04 78 80 38 44 44 38 80     .|.x.x|..x.8DD8.
 1e4:	7c 24 24 18 80 18 24 24 7c 80 78 04 04 80 80 48     |$$...$$|.x....H
 1f4:	54 54 24 80 04 3f 44 44 80 3c 40 40 7c 80 0c 30     TT$..?DD.<@@|..0
 204:	40 30 8c 3c 40 30 40 3c 44 28 10 28 44 4c 50 50     @0.<@0@<D(.(DLPP
 214:	3c 80 64 54 4c 44 80 08 36 41 80 80 7f 80 80 80     <.dTLD..6A......
 224:	80 41 36 08 80 80 08 04 08 10 08 80 80 80 80 80     .A6.............
 234:	1c 2a 49 49 22 1f 04 7f 40 40 20 12 10 12 20 10     .*II"...@@ ... .
 244:	22 20 22 10 21 54 54 79 80 79 14 14 79 80 39 44     " ".!TTy.y..y.9D
 254:	44 39 80 39 44 44 39 80 3d 40 40 7d 80 3d 40 40     D9.9DD9.=@@}.=@@
 264:	3d 80 7e 25 25 1a 80 6c 1a 6f 1a 6c 7d 5a 1e 5a     =.~%%..l.o.l}Z.Z
 274:	7d 4e 7b 0f 7b 4e 7c 3a 7e 3a 7c 1c 76 2e 76 1c     }N{.{N|:~:|.v.v.
 284:	1e 34 7c 34 1e 0c 12 24 12 0c 08 1c 3e 7f 80 7f     .4|4...$....>...
 294:	3e 1c 08 80 30 3f 01 62 7e 30 3f 02 80 80 1e 3d     >...0?.b~0?....=
 2a4:	77 73 31 60 7e 7b 7e 60 20 5f 23 80 80 7e 7a 7a     ws1`~{~` _#..~zz
 2b4:	7f 80 03 45 79 45 03 10 28 24 28 10 08 14 2a 14     ...EyE..($(...*.
 2c4:	08 00 00 00 00 00 36 36 08 36 36 1e 14 3c 28 78     ......66.66..<(x
 2d4:	44 24 1d 24 44 42 24 1d 62 01 08 65 1c 22 41 46     D$.$DB$.b..e."AF
 2e4:	24 1d 24 4c 08 44 3d 44 08 4c 24 1d 24 46 01 62     $.$L.D=D.L$.$F.b
 2f4:	1d 62 01 42 24 1d 24 42 7c 46 57 46 7c 7f 2a 2a     .b.B$.$B|FWF|.**
 304:	7f 80 2a 7f 41 7f 2a 0a 00 55 00 0a 30 48 4d 33     ..*.A.*..U..0HM3
 314:	07 06 29 79 29 06 08 1c 2a 08 08 08 08 2a 1c 08     ..)y)...*....*..

00000324 <animation>:
 324:	fe 07 99 07 70 07 5e 07 03 07 f3 06 cf 06 ba 06     ....p.^.........
 334:	af 06 04 06 a4 05 8a 05 25 05 fc 04 ab 04 6e 04     ........%.....n.
 344:	09 04 d6 03 b7 03 98 03 6f 03 50 03                 ........o.P.

00000350 <lady>:
 350:	40 40 58 64 68 64 68 70 48 44 4c 48 48 48 48 48     @@XdhdhpHDLHHHHH
 360:	44 42 71 49 52 64 68 70 70 58 40 40 40 40 ff        DBqIRdhppX@@@@.

0000036f <clock>:
 36f:	1c 22 2e 2a 1c 1c 22 2a 2e 1c 1c 22 2a 2a 1c 1c     .".*.."*..."**..
 37f:	22 2a 3a 1c 1c 22 3a 2a 1c 1c 32 2a 2a 1c 1c 2a     "*:..":*..2**..*
 38f:	2a 2a 1c 1c 26 2a 2a 1c ff                          **..&**..

00000398 <tv_off>:
 398:	7f 7f 7f 7f 7f 1c 1c 1c 1c 1c 08 08 08 08 08 08     ................
 3a8:	08 08 08 08 00 08 08 08 00 00 00 08 00 00 ff        ...............

000003b7 <psycho>:
 3b7:	1c 3e 77 3e 1c 3e 77 63 77 3e 77 63 41 63 77 63     .>w>.>wcw>wcAcwc
 3c7:	41 08 41 63 41 08 1c 08 41 08 1c 3e 1c 08 ff        A.AcA...A..>...

000003d6 <droplet>:
 3d6:	40 40 41 40 40 40 40 43 40 40 40 40 45 40 40 40     @@A@@@@C@@@@E@@@
 3e6:	40 49 40 40 40 40 51 40 40 40 40 21 40 40 40 40     @I@@@@Q@@@@!@@@@
 3f6:	51 40 40 40 48 41 48 40 48 40 41 40 48 40 40 41     Q@@@HAH@H@A@H@@A
 406:	40 40 ff                                            @@.

00000409 <explode>:
 409:	00 02 7d 00 00 00 01 7c 02 00 00 00 7a 00 00 00     ..}....|....z...
 419:	08 72 04 00 00 08 60 10 00 00 10 68 00 00 00 20     .r....`....h... 
 429:	40 10 00 00 00 20 00 00 00 00 00 00 00 00 00 00     @.... ..........
	...
 441:	00 30 00 00 00 7c 54 38 00 79 3d 24 3d 79 7b 3f     .0...|T8.y=$=y{?
 451:	16 3f 7b 7e 7c 18 7c 7e 7c 08 10 08 7c 70 08 10     .?{~|.|~|...|p..
 461:	08 70 60 08 20 10 60 10 40 00 20 00 ff              .p`. .`.@. ..

0000046e <train>:
 46e:	3f 67 64 24 66 66 24 6f 69 69 3f 01 00 3c 64 66     ?gd$ff$oii?..<df
 47e:	27 67 66 3c 00 00 21 3f 69 69 2f 29 29 2f 69 69     'gf<..!?ii/))/ii
 48e:	3f 21 00 00 20 3e 62 62 23 23 23 62 62 3e 20 00     ?!.. >bb###bb> .
 49e:	00 3c 64 7c 24 3c 24 3c 24 7c 64 3c ff              .<d|$<$<$|d<.

000004ab <rocket>:
 4ab:	40 3c 43 3c 40 40 7c 43 7c 40 40 3c 43 3c 40 40     @<C<@@|C|@@<C<@@
 4bb:	7c 43 7c 40 40 3c 43 3c 40 40 7c 43 7c 40 20 5e     |C|@@<C<@@|C|@ ^
 4cb:	21 5e 20 10 6f 10 6f 10 08 77 08 77 08 04 7b 04     !^ .o.o..w.w..{.
 4db:	7b 04 02 75 02 75 02 01 68 01 68 01 20 50 20 50     {..u.u..h.h. P P
 4eb:	20 40 10 20 00 40 20 00 40 00 40 40 00 40 00 00      @. .@ .@.@@.@..
 4fb:	ff                                                  .

000004fc <house>:
 4fc:	40 40 40 40 40 40 60 50 48 44 44 64 54 4c 44 44     @@@@@@`PHDDdTLDD
 50c:	6c 54 6c 44 44 6c 54 6c 7c 44 6c 55 6e 7c 44 6e     lTlDDlTl|DlUn|Dn
 51c:	55 6e 7c 7c 6e 55 6e 7c ff                          Un||nUn|.

00000525 <pong>:
 525:	40 40 09 01 00 00 45 41 00 00 03 01 40 40 00 05     @@....EA....@@..
 535:	01 40 40 00 09 41 40 00 00 50 41 01 00 00 60 41     .@@..A@..PA...`A
 545:	01 00 00 40 51 01 00 00 00 41 51 00 00 00 00 41     ...@Q....AQ....A
 555:	49 00 00 00 41 41 08 00 00 40 45 01 00 00 05 41     I...AA...@E....A
 565:	40 00 03 01 40 40 01 05 00 40 40 00 09 01 40 40     @...@@...@@...@@
 575:	00 10 01 41 40 00 20 41 41 00 00 40 41 41 00 00     ...A@. AA..@AA..
 585:	40 41 01 00 ff                                      @A...

0000058a <hop>:
 58a:	20 50 50 20 00 30 48 48 30 00 06 09 09 06 00 01      PP .0HH0.......
 59a:	02 02 01 00 00 01 01 00 00 ff                       ..........

000005a4 <glider>:
 5a4:	03 00 00 00 00 03 00 00 00 00 07 00 00 00 00 06     ................
 5b4:	02 00 00 00 05 06 00 00 00 0c 06 00 00 00 08 0e     ................
 5c4:	00 00 00 0a 0c 04 00 00 08 0a 0c 00 00 04 18 0c     ................
 5d4:	00 00 08 10 1c 00 00 00 14 18 08 00 00 10 14 18     ................
 5e4:	00 00 08 30 18 00 00 10 20 38 00 00 00 28 30 10     ...0.... 8...(0.
 5f4:	00 00 20 28 30 00 00 00 00 00 00 00 20 28 30 ff     .. (0....... (0.

00000604 <tetris>:
 604:	00 00 07 00 00 00 00 0e 00 00 00 08 08 08 00 10     ................
 614:	10 10 00 00 20 20 20 00 00 40 43 43 00 00 40 46     ....   ..@CC..@F
 624:	46 00 00 40 40 4c 0c 00 40 40 40 18 18 40 40 40     F..@@L..@@@..@@@
 634:	60 60 00 00 00 20 20 40 40 40 60 60 00 01 07 44     ``...  @@@``...D
 644:	40 00 02 0e 48 40 00 18 08 4c 40 30 10 18 40 40     @...H@...L@0..@@
 654:	60 20 30 40 40 60 27 34 40 40 7e 30 30 40 40 7e     ` 0@@`'4@@~00@@~
 664:	31 33 40 40 7e 32 36 40 40 7e 30 36 44 40 7e 30     13@@~26@@~06D@~0
 674:	30 4c 48 7e 30 30 50 58 7e 30 30 60 70 5e 10 10     0LH~00PX~00`p^..
 684:	40 50 7e 30 30 60 70 7c 20 20 40 60 7c 21 27 44     @P~00`p|  @`|!'D
 694:	60 7c 22 2e 48 60 7c 38 28 4c 60 7c 3b 2b 4c 60     `|".H`|8(L`|;+L`
 6a4:	7c 3e 2e 4c 60 7c 3f 2f 4d 60 ff                    |>.L`|?/M`.

000006af <checkers>:
 6af:	55 2a 55 2a 55 2a 55 2a 55 2a ff                    U*U*U*U*U*.

000006ba <ecg>:
 6ba:	10 10 10 10 10 08 10 10 0f 70 10 10 08 08 10 10     .........p......
 6ca:	10 10 10 10 ff                                      .....

000006cf <wink>:
 6cf:	00 26 20 26 00 00 26 20 26 00 00 26 20 26 00 00     .& &..& &..& &..
 6df:	26 20 24 00 00 26 20 26 00 00 26 20 26 00 10 26     & $..& &..& &..&
 6ef:	20 26 10 ff                                          &..

000006f3 <tunnel>:
 6f3:	00 00 1c 00 00 00 3e 22 3e 00 7f 41 41 41 7f ff     ......>">..AAA..

00000703 <snow>:
 703:	01 00 00 00 00 02 00 01 00 00 04 00 02 00 00 08     ................
 713:	01 04 00 01 10 02 08 00 02 20 04 11 00 04 41 08     ......... ....A.
 723:	22 00 08 42 10 44 01 10 45 20 48 02 20 4a 40 50     "..B.D..E H. J@P
 733:	04 41 54 40 60 08 42 68 41 60 11 44 70 42 60 22     .AT@`.BhA`.DpB`"
 743:	48 70 44 60 45 50 70 48 60 4a 50 70 50 60 54 60     HpD`EPpH`JPpP`T`
 753:	70 60 60 68 60 70 60 60 70 60 ff                    p``h`p``p`.

0000075e <mountainrange>:
 75e:	08 44 28 10 08 04 02 04 08 50 30 10 08 04 04 02     .D(......P0.....
 76e:	01 ff                                               ..

00000770 <bounce>:
 770:	01 00 00 00 00 02 02 01 00 00 06 09 09 06 00 00     ................
 780:	30 48 48 30 00 20 50 50 20 00 30 48 48 30 00 00     0HH0. PP .0HH0..
 790:	06 09 09 00 00 00 01 02 ff                          .........

00000799 <fire>:
 799:	78 5c 68 78 71 7c 38 74 7c 7a 78 50 62 62 78 7c     x\hxq|8t|zxPbbx|
 7a9:	60 61 70 68 7a 60 30 78 74 70 79 70 52 69 60 7c     `aphz`0xtpypRi`|
 7b9:	68 70 61 50 66 70 78 20 68 71 60 72 50 74 79 70     hpaPfpx hq`rPtyp
 7c9:	62 68 72 70 30 61 74 61 78 50 70 7a 74 31 40 68     bhrp0ataxPpzt1@h
 7d9:	44 10 68 70 34 60 28 4a 60 58 60 60 70 38 66 18     D.hp4`(J`X``p8f.
 7e9:	60 70 78 42 19 58 64 70 29 70 70 3a 78 54 70 70     `pxB.Xdp)pp:xTpp
 7f9:	51 78 6a 70 ff                                      Qxjp.

000007fe <arrow>:
 7fe:	14 2a 49 49 3e 00 1c 2a 49 3e 00 3e 49 3e 08 7f     .*II>..*I>.>I>..
 80e:	2a 1c 08 08 22 1c 08 08 08 1c 00 08 08 08 00 08     *..."...........
 81e:	08 08 08 08 08 08 08 00 08 08 08 00 00 08 08 00     ................
 82e:	00 00 08 00 00 00 00 00 00 00 00 0c 00 00 00 0c     ................
 83e:	12 00 00 0c 12 24 00 0c 12 24 12 0c 12 24 12 0c     .....$...$...$..
 84e:	ff                                                  .

0000084f <spd_conv>:
 84f:	32 1e 12 0b 07 05 03 02                             2.......

00000857 <dly_conv>:
 857:	00 01 02 03 05 08 0d 15 00                          .........

00000860 <__ctors_end>:
 860:	11 24       	eor	r1, r1
 862:	1f be       	out	0x3f, r1	; 63
 864:	cf e5       	ldi	r28, 0x5F	; 95
 866:	d1 e0       	ldi	r29, 0x01	; 1
 868:	de bf       	out	0x3e, r29	; 62
 86a:	cd bf       	out	0x3d, r28	; 61

0000086c <__do_copy_data>:
 86c:	10 e0       	ldi	r17, 0x00	; 0
 86e:	a0 e6       	ldi	r26, 0x60	; 96
 870:	b0 e0       	ldi	r27, 0x00	; 0
 872:	e0 ef       	ldi	r30, 0xF0	; 240
 874:	ff e0       	ldi	r31, 0x0F	; 15
 876:	02 c0       	rjmp	.+4      	; 0x87c <__do_copy_data+0x10>
 878:	05 90       	lpm	r0, Z+
 87a:	0d 92       	st	X+, r0
 87c:	a8 36       	cpi	r26, 0x68	; 104
 87e:	b1 07       	cpc	r27, r17
 880:	d9 f7       	brne	.-10     	; 0x878 <__do_copy_data+0xc>

00000882 <__do_clear_bss>:
 882:	11 e0       	ldi	r17, 0x01	; 1
 884:	a8 e6       	ldi	r26, 0x68	; 104
 886:	b0 e0       	ldi	r27, 0x00	; 0
 888:	01 c0       	rjmp	.+2      	; 0x88c <.do_clear_bss_start>

0000088a <.do_clear_bss_loop>:
 88a:	1d 92       	st	X+, r1

0000088c <.do_clear_bss_start>:
 88c:	a9 33       	cpi	r26, 0x39	; 57
 88e:	b1 07       	cpc	r27, r17
 890:	e1 f7       	brne	.-8      	; 0x88a <.do_clear_bss_loop>
 892:	6a d3       	rcall	.+1748   	; 0xf68 <main>
 894:	ab c3       	rjmp	.+1878   	; 0xfec <_exit>

00000896 <__bad_interrupt>:
 896:	b4 cb       	rjmp	.-2200   	; 0x0 <__vectors>

00000898 <dmDisplay>:
	Output:			none
	Description:	Switch to the next display column and display it on the led matrix.
					Call this function periodically, e. g. within an interrupt routine.
======================================================================*/
void dmDisplay(void)
{
 898:	cf 93       	push	r28
 89a:	df 93       	push	r29
 89c:	cd b7       	in	r28, 0x3d	; 61
 89e:	de b7       	in	r29, 0x3e	; 62
 8a0:	c3 50       	subi	r28, 0x03	; 3
 8a2:	cd bf       	out	0x3d, r28	; 61
	display.curr_col++;
 8a4:	80 91 34 01 	lds	r24, 0x0134
 8a8:	8f 5f       	subi	r24, 0xFF	; 255
 8aa:	80 93 34 01 	sts	0x0134, r24
	if (display.curr_col >= DISP_COLUMNS) {
 8ae:	85 30       	cpi	r24, 0x05	; 5
 8b0:	10 f0       	brcs	.+4      	; 0x8b6 <dmDisplay+0x1e>
		display.curr_col = 0;
 8b2:	10 92 34 01 	sts	0x0134, r1
	}
	dmSetOutputs(display.curr_col, display.memory[display.base + display.curr_col]);
 8b6:	20 91 34 01 	lds	r18, 0x0134
 8ba:	e0 91 33 01 	lds	r30, 0x0133
 8be:	f0 e0       	ldi	r31, 0x00	; 0
 8c0:	e5 59       	subi	r30, 0x95	; 149
 8c2:	ff 4f       	sbci	r31, 0xFF	; 255
 8c4:	e2 0f       	add	r30, r18
 8c6:	f1 1d       	adc	r31, r1
 8c8:	30 81       	ld	r19, Z
inline void dmSetOutputs(uint8_t col, uint8_t pattern)
{
	uint8_t i;
	uint8_t p[3];

	p[0] = 0;  p[1] = 0;  p[2] = 0;
 8ca:	19 82       	std	Y+1, r1	; 0x01
 8cc:	1a 82       	std	Y+2, r1	; 0x02
 8ce:	1b 82       	std	Y+3, r1	; 0x03
 8d0:	80 e0       	ldi	r24, 0x00	; 0
 8d2:	90 e0       	ldi	r25, 0x00	; 0
	for (i = 0; i < DISP_ROWS; i++) {
		if (BIT_IS_ON) {
 8d4:	30 ff       	sbrs	r19, 0
 8d6:	11 c0       	rjmp	.+34     	; 0x8fa <dmDisplay+0x62>
			p[ pgm_read_byte(&row_port[i]) ] |= pgm_read_byte(&row_bit[i]);		// set bit
 8d8:	fc 01       	movw	r30, r24
 8da:	ed 5b       	subi	r30, 0xBD	; 189
 8dc:	ff 4f       	sbci	r31, 0xFF	; 255
 8de:	44 91       	lpm	r20, Z
 8e0:	fc 01       	movw	r30, r24
 8e2:	e4 5c       	subi	r30, 0xC4	; 196
 8e4:	ff 4f       	sbci	r31, 0xFF	; 255
 8e6:	e4 91       	lpm	r30, Z
 8e8:	a1 e0       	ldi	r26, 0x01	; 1
 8ea:	b0 e0       	ldi	r27, 0x00	; 0
 8ec:	ac 0f       	add	r26, r28
 8ee:	bd 1f       	adc	r27, r29
 8f0:	a4 0f       	add	r26, r20
 8f2:	b1 1d       	adc	r27, r1
 8f4:	4c 91       	ld	r20, X
 8f6:	4e 2b       	or	r20, r30
 8f8:	4c 93       	st	X, r20
		}
		NEXT_BIT;
 8fa:	36 95       	lsr	r19
 8fc:	01 96       	adiw	r24, 0x01	; 1
{
	uint8_t i;
	uint8_t p[3];

	p[0] = 0;  p[1] = 0;  p[2] = 0;
	for (i = 0; i < DISP_ROWS; i++) {
 8fe:	87 30       	cpi	r24, 0x07	; 7
 900:	91 05       	cpc	r25, r1
 902:	41 f7       	brne	.-48     	; 0x8d4 <dmDisplay+0x3c>
 904:	80 e0       	ldi	r24, 0x00	; 0
 906:	90 e0       	ldi	r25, 0x00	; 0
			p[ pgm_read_byte(&row_port[i]) ] |= pgm_read_byte(&row_bit[i]);		// set bit
		}
		NEXT_BIT;
	}		
	for (i = 0; i < DISP_COLUMNS; i++) {
		if (i != COL) {					// note: COL is a macro
 908:	28 17       	cp	r18, r24
 90a:	89 f0       	breq	.+34     	; 0x92e <dmDisplay+0x96>
			p[ pgm_read_byte(&col_port[i]) ] |= pgm_read_byte(&col_bit[i]);		// set bit
 90c:	fc 01       	movw	r30, r24
 90e:	e1 5b       	subi	r30, 0xB1	; 177
 910:	ff 4f       	sbci	r31, 0xFF	; 255
 912:	34 91       	lpm	r19, Z
 914:	fc 01       	movw	r30, r24
 916:	e6 5b       	subi	r30, 0xB6	; 182
 918:	ff 4f       	sbci	r31, 0xFF	; 255
 91a:	e4 91       	lpm	r30, Z
 91c:	a1 e0       	ldi	r26, 0x01	; 1
 91e:	b0 e0       	ldi	r27, 0x00	; 0
 920:	ac 0f       	add	r26, r28
 922:	bd 1f       	adc	r27, r29
 924:	a3 0f       	add	r26, r19
 926:	b1 1d       	adc	r27, r1
 928:	3c 91       	ld	r19, X
 92a:	3e 2b       	or	r19, r30
 92c:	3c 93       	st	X, r19
 92e:	01 96       	adiw	r24, 0x01	; 1
		if (BIT_IS_ON) {
			p[ pgm_read_byte(&row_port[i]) ] |= pgm_read_byte(&row_bit[i]);		// set bit
		}
		NEXT_BIT;
	}		
	for (i = 0; i < DISP_COLUMNS; i++) {
 930:	85 30       	cpi	r24, 0x05	; 5
 932:	91 05       	cpc	r25, r1
 934:	49 f7       	brne	.-46     	; 0x908 <dmDisplay+0x70>
		if (i != COL) {					// note: COL is a macro
			p[ pgm_read_byte(&col_port[i]) ] |= pgm_read_byte(&col_bit[i]);		// set bit
		}
	}
	#if DISP_TYPE == 1					// if we use a display with common column anode
		p[0] ^= DISP_MASK_A;				// -> invert outputs
 936:	99 81       	ldd	r25, Y+1	; 0x01
 938:	83 e0       	ldi	r24, 0x03	; 3
 93a:	98 27       	eor	r25, r24
		p[1] ^= DISP_MASK_B;
 93c:	8a 81       	ldd	r24, Y+2	; 0x02
 93e:	2e e7       	ldi	r18, 0x7E	; 126
 940:	82 27       	eor	r24, r18
 942:	8a 83       	std	Y+2, r24	; 0x02
		p[2] ^= DISP_MASK_D;
 944:	8b 81       	ldd	r24, Y+3	; 0x03
 946:	2e e1       	ldi	r18, 0x1E	; 30
 948:	82 27       	eor	r24, r18
 94a:	8b 83       	std	Y+3, r24	; 0x03
	#endif

	// set outputs
	i = PORTA & ~DISP_MASK_A;
 94c:	8b b3       	in	r24, 0x1b	; 27
 94e:	8c 7f       	andi	r24, 0xFC	; 252
	PORTA = i | p[0];
 950:	89 2b       	or	r24, r25
 952:	8b bb       	out	0x1b, r24	; 27
	i = PORTB & ~DISP_MASK_B;
 954:	88 b3       	in	r24, 0x18	; 24
 956:	81 78       	andi	r24, 0x81	; 129
	PORTB = i | p[1];
 958:	9a 81       	ldd	r25, Y+2	; 0x02
 95a:	89 2b       	or	r24, r25
 95c:	88 bb       	out	0x18, r24	; 24
	i = PORTD & ~DISP_MASK_D;
 95e:	82 b3       	in	r24, 0x12	; 18
 960:	81 7e       	andi	r24, 0xE1	; 225
	PORTD = i | p[2];
 962:	9b 81       	ldd	r25, Y+3	; 0x03
 964:	89 2b       	or	r24, r25
 966:	82 bb       	out	0x12, r24	; 18
	display.curr_col++;
	if (display.curr_col >= DISP_COLUMNS) {
		display.curr_col = 0;
	}
	dmSetOutputs(display.curr_col, display.memory[display.base + display.curr_col]);
}
 968:	cd 5f       	subi	r28, 0xFD	; 253
 96a:	cd bf       	out	0x3d, r28	; 61
 96c:	df 91       	pop	r29
 96e:	cf 91       	pop	r28
 970:	08 95       	ret

00000972 <dmScroll>:
======================================================================*/
uint8_t dmScroll(void)
{
	uint8_t temp, mode;

	mode = display.scroll_mode;
 972:	f0 91 35 01 	lds	r31, 0x0135
	temp = mode & 0x0F;										// extract increment
 976:	8f 2f       	mov	r24, r31
 978:	8f 70       	andi	r24, 0x0F	; 15
	if (mode & 0x10)	{ temp = display.base - temp; }		// scrolling backward
 97a:	4f 2f       	mov	r20, r31
 97c:	50 e0       	ldi	r21, 0x00	; 0
 97e:	ba 01       	movw	r22, r20
 980:	60 71       	andi	r22, 0x10	; 16
 982:	70 70       	andi	r23, 0x00	; 0
 984:	e0 91 33 01 	lds	r30, 0x0133
 988:	f4 ff       	sbrs	r31, 4
 98a:	02 c0       	rjmp	.+4      	; 0x990 <dmScroll+0x1e>
 98c:	e8 1b       	sub	r30, r24
 98e:	01 c0       	rjmp	.+2      	; 0x992 <dmScroll+0x20>
															// We use a dirty trick here:
															// Temp may underflow at left end of display memory.
	else				{ temp = display.base + temp; }		// scrolling forward
 990:	e8 0f       	add	r30, r24

	if ((temp + DISP_COLUMNS) > display.cursor ) {			// end of scrolling range reached?
 992:	a0 91 36 01 	lds	r26, 0x0136
 996:	8e 2f       	mov	r24, r30
 998:	90 e0       	ldi	r25, 0x00	; 0
 99a:	04 96       	adiw	r24, 0x04	; 4
 99c:	2a 2f       	mov	r18, r26
 99e:	30 e0       	ldi	r19, 0x00	; 0
 9a0:	82 17       	cp	r24, r18
 9a2:	93 07       	cpc	r25, r19
 9a4:	f4 f0       	brlt	.+60     	; 0x9e2 <dmScroll+0x70>
															// Note: As temp is allowed to underflow, this is 
															// true at both ends of the display memory.
		if (display.delay_counter) {
 9a6:	80 91 38 01 	lds	r24, 0x0138
 9aa:	88 23       	and	r24, r24
 9ac:	21 f0       	breq	.+8      	; 0x9b6 <dmScroll+0x44>
			display.delay_counter--;
 9ae:	81 50       	subi	r24, 0x01	; 1
 9b0:	80 93 38 01 	sts	0x0138, r24
 9b4:	14 c0       	rjmp	.+40     	; 0x9de <dmScroll+0x6c>
		}
		else {
			display.delay_counter = display.scroll_delay;					// reload delay counter
 9b6:	80 91 37 01 	lds	r24, 0x0137
 9ba:	80 93 38 01 	sts	0x0138, r24
			if (mode & 0x20)		{ display.scroll_mode = mode ^ 0x10; }	// reverse direction
 9be:	45 ff       	sbrs	r20, 5
 9c0:	05 c0       	rjmp	.+10     	; 0x9cc <dmScroll+0x5a>
 9c2:	80 e1       	ldi	r24, 0x10	; 16
 9c4:	8f 27       	eor	r24, r31
 9c6:	80 93 35 01 	sts	0x0135, r24
 9ca:	09 c0       	rjmp	.+18     	; 0x9de <dmScroll+0x6c>
			else if (mode &0x10)	{ display.base = display.cursor - DISP_COLUMNS; }	// restart from right end
 9cc:	61 15       	cp	r22, r1
 9ce:	71 05       	cpc	r23, r1
 9d0:	21 f0       	breq	.+8      	; 0x9da <dmScroll+0x68>
 9d2:	a5 50       	subi	r26, 0x05	; 5
 9d4:	a0 93 33 01 	sts	0x0133, r26
 9d8:	02 c0       	rjmp	.+4      	; 0x9de <dmScroll+0x6c>
			else					{ display.base = 0; }					// restart from left end
 9da:	10 92 33 01 	sts	0x0133, r1
		}
		return (1);
 9de:	81 e0       	ldi	r24, 0x01	; 1
 9e0:	08 95       	ret
	}
	else {
		display.base = temp;
 9e2:	e0 93 33 01 	sts	0x0133, r30
		return (0);
 9e6:	80 e0       	ldi	r24, 0x00	; 0
	}
}
 9e8:	08 95       	ret

000009ea <dmSetScrolling>:
	Description:	Set scrolling increment and direction.
					Delay sets number of scrolling steps to wait at end of scrolling range.
======================================================================*/
void dmSetScrolling(uint8_t inc, uint8_t dir, uint8_t delay)
{
	inc &= 0x0F;		// limit range
 9ea:	8f 70       	andi	r24, 0x0F	; 15
	dir &= 0x03;		// limit range
 9ec:	63 70       	andi	r22, 0x03	; 3
	if (dir != BACKWARD)	{ display.delay_counter = delay; }
 9ee:	61 30       	cpi	r22, 0x01	; 1
 9f0:	19 f0       	breq	.+6      	; 0x9f8 <dmSetScrolling+0xe>
 9f2:	40 93 38 01 	sts	0x0138, r20
 9f6:	02 c0       	rjmp	.+4      	; 0x9fc <dmSetScrolling+0x12>
	else					{ display.delay_counter = 0; }
 9f8:	10 92 38 01 	sts	0x0138, r1
	swap(dir);
 9fc:	62 95       	swap	r22
	display.scroll_mode   = inc | dir;
 9fe:	68 2b       	or	r22, r24
 a00:	60 93 35 01 	sts	0x0135, r22
	display.scroll_delay  = delay;
 a04:	40 93 37 01 	sts	0x0137, r20
}
 a08:	08 95       	ret

00000a0a <dmClearDisplay>:
======================================================================*/
void dmClearDisplay(void)
{
	uint8_t i;

	display.base  = 0;
 a0a:	10 92 33 01 	sts	0x0133, r1
	display.cursor = 0;
 a0e:	10 92 36 01 	sts	0x0136, r1
	for (i = 0; i < DISP_COLUMNS; i++) {
		display.memory[i] = 0;
 a12:	10 92 6b 00 	sts	0x006B, r1
 a16:	10 92 6c 00 	sts	0x006C, r1
 a1a:	10 92 6d 00 	sts	0x006D, r1
 a1e:	10 92 6e 00 	sts	0x006E, r1
 a22:	10 92 6f 00 	sts	0x006F, r1
	}
}
 a26:	08 95       	ret

00000a28 <dmInit>:
	Output:			none
	Description:	Initialize the hardware.
======================================================================*/
void dmInit(void)
{
	dmClearDisplay();
 a28:	f0 df       	rcall	.-32     	; 0xa0a <dmClearDisplay>
	display.scroll_mode = 0;
 a2a:	10 92 35 01 	sts	0x0135, r1
	display.scroll_delay = 0;
 a2e:	10 92 37 01 	sts	0x0137, r1
}
 a32:	08 95       	ret

00000a34 <dmDisplayImage>:
======================================================================*/
void dmDisplayImage(const uint8_t* image)
{
	uint8_t img_data, pos;

	pos = display.cursor;
 a34:	20 91 36 01 	lds	r18, 0x0136
	while(pos < DISP_MAX) {
 a38:	0b c0       	rjmp	.+22     	; 0xa50 <dmDisplayImage+0x1c>
		img_data = pgm_read_byte(image++);	// read byte from flash
 a3a:	fc 01       	movw	r30, r24
 a3c:	34 91       	lpm	r19, Z
		if (img_data == 0xFF) { break; }	// stop if end-of-data has been reached
 a3e:	3f 3f       	cpi	r19, 0xFF	; 255
 a40:	49 f0       	breq	.+18     	; 0xa54 <dmDisplayImage+0x20>
{
	uint8_t img_data, pos;

	pos = display.cursor;
	while(pos < DISP_MAX) {
		img_data = pgm_read_byte(image++);	// read byte from flash
 a42:	01 96       	adiw	r24, 0x01	; 1
		if (img_data == 0xFF) { break; }	// stop if end-of-data has been reached
		display.memory[pos] = img_data;
 a44:	e2 2f       	mov	r30, r18
 a46:	f0 e0       	ldi	r31, 0x00	; 0
 a48:	e5 59       	subi	r30, 0x95	; 149
 a4a:	ff 4f       	sbci	r31, 0xFF	; 255
 a4c:	30 83       	st	Z, r19
		pos++;
 a4e:	2f 5f       	subi	r18, 0xFF	; 255
void dmDisplayImage(const uint8_t* image)
{
	uint8_t img_data, pos;

	pos = display.cursor;
	while(pos < DISP_MAX) {
 a50:	28 3c       	cpi	r18, 0xC8	; 200
 a52:	98 f3       	brcs	.-26     	; 0xa3a <dmDisplayImage+0x6>
		img_data = pgm_read_byte(image++);	// read byte from flash
		if (img_data == 0xFF) { break; }	// stop if end-of-data has been reached
		display.memory[pos] = img_data;
		pos++;
	}
	display.cursor = pos;
 a54:	20 93 36 01 	sts	0x0136, r18
}
 a58:	08 95       	ret

00000a5a <dmPrintByte>:
======================================================================*/
void dmPrintByte(uint8_t byt)
{
	uint8_t pos;

	pos = display.cursor;
 a5a:	90 91 36 01 	lds	r25, 0x0136
	if (pos < DISP_MAX) { 
 a5e:	98 3c       	cpi	r25, 0xC8	; 200
 a60:	40 f4       	brcc	.+16     	; 0xa72 <dmPrintByte+0x18>
		display.memory[pos] = byt;
 a62:	e9 2f       	mov	r30, r25
 a64:	f0 e0       	ldi	r31, 0x00	; 0
 a66:	e5 59       	subi	r30, 0x95	; 149
 a68:	ff 4f       	sbci	r31, 0xFF	; 255
 a6a:	80 83       	st	Z, r24
		pos++;
 a6c:	9f 5f       	subi	r25, 0xFF	; 255
		display.cursor = pos;
 a6e:	90 93 36 01 	sts	0x0136, r25
 a72:	08 95       	ret

00000a74 <dmPrintChar>:
{
	uint8_t  i, pos, char_data;
	uint16_t fnt;			// pointer into character font

	// mapping of german special characters
	if (ch == 223) { ch = 138; }		// 'ß'
 a74:	8f 3d       	cpi	r24, 0xDF	; 223
 a76:	49 f0       	breq	.+18     	; 0xa8a <dmPrintChar+0x16>
	if (ch == 196) { ch = 133; }		// 'Ä'
 a78:	84 3c       	cpi	r24, 0xC4	; 196
 a7a:	61 f0       	breq	.+24     	; 0xa94 <dmPrintChar+0x20>
	if (ch == 214) { ch = 135; }		// 'Ö'
 a7c:	86 3d       	cpi	r24, 0xD6	; 214
 a7e:	79 f0       	breq	.+30     	; 0xa9e <dmPrintChar+0x2a>
	if (ch == 220) { ch = 137; }		// 'Ü'
 a80:	8c 3d       	cpi	r24, 0xDC	; 220
 a82:	79 f0       	breq	.+30     	; 0xaa2 <dmPrintChar+0x2e>
	if (ch == 228) { ch = 132; }		// 'ä'
 a84:	84 3e       	cpi	r24, 0xE4	; 228
 a86:	79 f0       	breq	.+30     	; 0xaa6 <dmPrintChar+0x32>
 a88:	02 c0       	rjmp	.+4      	; 0xa8e <dmPrintChar+0x1a>
{
	uint8_t  i, pos, char_data;
	uint16_t fnt;			// pointer into character font

	// mapping of german special characters
	if (ch == 223) { ch = 138; }		// 'ß'
 a8a:	8a e8       	ldi	r24, 0x8A	; 138
 a8c:	11 c0       	rjmp	.+34     	; 0xab0 <dmPrintChar+0x3c>
	if (ch == 196) { ch = 133; }		// 'Ä'
	if (ch == 214) { ch = 135; }		// 'Ö'
	if (ch == 220) { ch = 137; }		// 'Ü'
	if (ch == 228) { ch = 132; }		// 'ä'
	if (ch == 246) { ch = 134; }		// 'ö'
 a8e:	86 3f       	cpi	r24, 0xF6	; 246
 a90:	61 f0       	breq	.+24     	; 0xaaa <dmPrintChar+0x36>
 a92:	02 c0       	rjmp	.+4      	; 0xa98 <dmPrintChar+0x24>
	uint8_t  i, pos, char_data;
	uint16_t fnt;			// pointer into character font

	// mapping of german special characters
	if (ch == 223) { ch = 138; }		// 'ß'
	if (ch == 196) { ch = 133; }		// 'Ä'
 a94:	85 e8       	ldi	r24, 0x85	; 133
 a96:	0c c0       	rjmp	.+24     	; 0xab0 <dmPrintChar+0x3c>
	if (ch == 214) { ch = 135; }		// 'Ö'
	if (ch == 220) { ch = 137; }		// 'Ü'
	if (ch == 228) { ch = 132; }		// 'ä'
	if (ch == 246) { ch = 134; }		// 'ö'
	if (ch == 252) { ch = 136; }		// 'ü'
 a98:	8c 3f       	cpi	r24, 0xFC	; 252
 a9a:	49 f0       	breq	.+18     	; 0xaae <dmPrintChar+0x3a>
 a9c:	09 c0       	rjmp	.+18     	; 0xab0 <dmPrintChar+0x3c>
	uint16_t fnt;			// pointer into character font

	// mapping of german special characters
	if (ch == 223) { ch = 138; }		// 'ß'
	if (ch == 196) { ch = 133; }		// 'Ä'
	if (ch == 214) { ch = 135; }		// 'Ö'
 a9e:	87 e8       	ldi	r24, 0x87	; 135
 aa0:	07 c0       	rjmp	.+14     	; 0xab0 <dmPrintChar+0x3c>
	if (ch == 220) { ch = 137; }		// 'Ü'
 aa2:	89 e8       	ldi	r24, 0x89	; 137
 aa4:	05 c0       	rjmp	.+10     	; 0xab0 <dmPrintChar+0x3c>
	if (ch == 228) { ch = 132; }		// 'ä'
 aa6:	84 e8       	ldi	r24, 0x84	; 132
 aa8:	03 c0       	rjmp	.+6      	; 0xab0 <dmPrintChar+0x3c>
	if (ch == 246) { ch = 134; }		// 'ö'
 aaa:	86 e8       	ldi	r24, 0x86	; 134
 aac:	01 c0       	rjmp	.+2      	; 0xab0 <dmPrintChar+0x3c>
	if (ch == 252) { ch = 136; }		// 'ü'
 aae:	88 e8       	ldi	r24, 0x88	; 136
	ch -= 32;
 ab0:	80 52       	subi	r24, 0x20	; 32
	if (ch > (sizeof(font)/CHAR_WIDTH)) { return; }
 ab2:	81 39       	cpi	r24, 0x91	; 145
 ab4:	10 f5       	brcc	.+68     	; 0xafa <dmPrintChar+0x86>
		
	fnt = ch;
 ab6:	e8 2f       	mov	r30, r24
 ab8:	f0 e0       	ldi	r31, 0x00	; 0
	fnt = (fnt << 2) + fnt + (uint16_t) &font[0];		// fnt = &font + 5 * ch
 aba:	cf 01       	movw	r24, r30
 abc:	88 0f       	add	r24, r24
 abe:	99 1f       	adc	r25, r25
 ac0:	88 0f       	add	r24, r24
 ac2:	99 1f       	adc	r25, r25
 ac4:	ec 5a       	subi	r30, 0xAC	; 172
 ac6:	ff 4f       	sbci	r31, 0xFF	; 255
 ac8:	e8 0f       	add	r30, r24
 aca:	f9 1f       	adc	r31, r25
	
	pos = display.cursor;
 acc:	80 91 36 01 	lds	r24, 0x0136
 ad0:	95 e0       	ldi	r25, 0x05	; 5
 ad2:	01 c0       	rjmp	.+2      	; 0xad6 <dmPrintChar+0x62>
	for (i = 0; i < CHAR_WIDTH; i++) {
		char_data = pgm_read_byte(fnt++);	// read byte from font
 ad4:	f9 01       	movw	r30, r18
 ad6:	9f 01       	movw	r18, r30
 ad8:	2f 5f       	subi	r18, 0xFF	; 255
 ada:	3f 4f       	sbci	r19, 0xFF	; 255
 adc:	e4 91       	lpm	r30, Z
		if (char_data & 0x80) { break; }	// stop if MSB is set (proportional character width)
 ade:	e7 fd       	sbrc	r30, 7
 ae0:	0a c0       	rjmp	.+20     	; 0xaf6 <dmPrintChar+0x82>
		if (pos < DISP_MAX) {
 ae2:	88 3c       	cpi	r24, 0xC8	; 200
 ae4:	30 f4       	brcc	.+12     	; 0xaf2 <dmPrintChar+0x7e>
			display.memory[pos] = char_data;
 ae6:	a8 2f       	mov	r26, r24
 ae8:	b0 e0       	ldi	r27, 0x00	; 0
 aea:	a5 59       	subi	r26, 0x95	; 149
 aec:	bf 4f       	sbci	r27, 0xFF	; 255
 aee:	ec 93       	st	X, r30
			pos++;
 af0:	8f 5f       	subi	r24, 0xFF	; 255
 af2:	91 50       	subi	r25, 0x01	; 1
		
	fnt = ch;
	fnt = (fnt << 2) + fnt + (uint16_t) &font[0];		// fnt = &font + 5 * ch
	
	pos = display.cursor;
	for (i = 0; i < CHAR_WIDTH; i++) {
 af4:	79 f7       	brne	.-34     	; 0xad4 <dmPrintChar+0x60>
		if (pos < DISP_MAX) {
			display.memory[pos] = char_data;
			pos++;
		}		
	}
	display.cursor = pos;
 af6:	80 93 36 01 	sts	0x0136, r24
 afa:	08 95       	ret

00000afc <InitHardware>:
	Description:	.
======================================================================*/
void InitHardware(void)
{
	// switch all pins that are connected to the dot matrix to output
	DDRA = DISP_MASK_A;
 afc:	83 e0       	ldi	r24, 0x03	; 3
 afe:	8a bb       	out	0x1a, r24	; 26
	DDRB = DISP_MASK_B;
 b00:	8e e7       	ldi	r24, 0x7E	; 126
 b02:	87 bb       	out	0x17, r24	; 23
	DDRD = DISP_MASK_D;
 b04:	8e e1       	ldi	r24, 0x1E	; 30
 b06:	81 bb       	out	0x11, r24	; 17
	
	// enable pull-ups on all input pins to avoid floating inputs
	PORTA |= ~DISP_MASK_A;
 b08:	8b b3       	in	r24, 0x1b	; 27
 b0a:	8c 6f       	ori	r24, 0xFC	; 252
 b0c:	8b bb       	out	0x1b, r24	; 27
	PORTB |= ~DISP_MASK_B;
 b0e:	88 b3       	in	r24, 0x18	; 24
 b10:	81 68       	ori	r24, 0x81	; 129
 b12:	88 bb       	out	0x18, r24	; 24
	PORTD |= ~DISP_MASK_D;
 b14:	82 b3       	in	r24, 0x12	; 18
 b16:	81 6e       	ori	r24, 0xE1	; 225
 b18:	82 bb       	out	0x12, r24	; 18
	
	// timer 0
	TCCR0A = (0<<WGM00);				// timer mode = normal
 b1a:	10 be       	out	0x30, r1	; 48
	TCCR0B = (5<<CS00);					// prescaler = 1:1024
 b1c:	85 e0       	ldi	r24, 0x05	; 5
 b1e:	83 bf       	out	0x33, r24	; 51
	OCR0A = OCR0A_CYCLE_TIME;
 b20:	84 e0       	ldi	r24, 0x04	; 4
 b22:	86 bf       	out	0x36, r24	; 54
	OCR0B = OCR0B_CYCLE_TIME;
 b24:	87 e2       	ldi	r24, 0x27	; 39
 b26:	8c bf       	out	0x3c, r24	; 60
	TIMSK |= (1<<OCIE0B)|(1<<OCIE0A);
 b28:	89 b7       	in	r24, 0x39	; 57
 b2a:	85 60       	ori	r24, 0x05	; 5
 b2c:	89 bf       	out	0x39, r24	; 57
	
	// serial interface
	// Note: Speed of the serial interface must not be higher than 2400 Baud.
	// This leaves enough time for the EEPROM write operation to complete before 
	// the next byte arrives.
	UBRRL = (uint8_t) (103.5 * SER_CLK_CORRECTION);	// 2400 baud, corrected value
 b2e:	87 e6       	ldi	r24, 0x67	; 103
 b30:	89 b9       	out	0x09, r24	; 9
//	UBRRL = 103;						// 2400 baud, ideal value
//	UBRRL = 207;						// 1200 baud, ideal value
	UBRRH = 0;
 b32:	12 b8       	out	0x02, r1	; 2
	UCSRB = (1<<RXCIE)|(1<<RXEN);		// enable receiver, enable RX interrupt
 b34:	80 e9       	ldi	r24, 0x90	; 144
 b36:	8a b9       	out	0x0a, r24	; 10
	UCSRC = (3<<UCSZ0);					// async USART, 8 data bits, no parity, 1 stop bit
 b38:	86 e0       	ldi	r24, 0x06	; 6
 b3a:	83 b9       	out	0x03, r24	; 3
}
 b3c:	08 95       	ret

00000b3e <SetMode>:
					Bit 6..4:	delay between scrolling repetitions (0 = shortest, 7 = longest)
					Bit 3:		scrolling increment (cleared = +1 (for texts), set = +5 (for animations))
					Bit 2..0:	scrolling speed (1 = slowest, 7 = fastest)
======================================================================*/
void SetMode(uint8_t mode)
{
 b3e:	cf 93       	push	r28
 b40:	c8 2f       	mov	r28, r24
	uint8_t inc, dir, dly, spd;

	if (mode & MODE_FRAME)	{ inc = 5; }
 b42:	83 ff       	sbrs	r24, 3
 b44:	02 c0       	rjmp	.+4      	; 0xb4a <SetMode+0xc>
 b46:	85 e0       	ldi	r24, 0x05	; 5
 b48:	01 c0       	rjmp	.+2      	; 0xb4c <SetMode+0xe>
		else				{ inc = 1; }
 b4a:	81 e0       	ldi	r24, 0x01	; 1
	if (mode & MODE_BIDIR)	{ dir = BIDIRECTIONAL; }
 b4c:	6c 2f       	mov	r22, r28
 b4e:	66 1f       	adc	r22, r22
 b50:	66 27       	eor	r22, r22
 b52:	66 1f       	adc	r22, r22
 b54:	66 0f       	add	r22, r22
		else				{ dir = FORWARD; }
	spd = mode & MODE_SPEED;
	dly = swap(mode & MODE_DELAY);
 b56:	ec 2f       	mov	r30, r28
 b58:	e0 77       	andi	r30, 0x70	; 112
 b5a:	e2 95       	swap	r30
	dmSetScrolling(inc, dir, pgm_read_byte(&dly_conv[dly]));
 b5c:	f0 e0       	ldi	r31, 0x00	; 0
 b5e:	e9 5a       	subi	r30, 0xA9	; 169
 b60:	f7 4f       	sbci	r31, 0xF7	; 247
 b62:	44 91       	lpm	r20, Z
 b64:	42 df       	rcall	.-380    	; 0x9ea <dmSetScrolling>

	if (mode & MODE_FRAME)	{ inc = 5; }
		else				{ inc = 1; }
	if (mode & MODE_BIDIR)	{ dir = BIDIRECTIONAL; }
		else				{ dir = FORWARD; }
	spd = mode & MODE_SPEED;
 b66:	c7 70       	andi	r28, 0x07	; 7
	dly = swap(mode & MODE_DELAY);
	dmSetScrolling(inc, dir, pgm_read_byte(&dly_conv[dly]));
	scroll_speed = pgm_read_byte(&spd_conv[spd]);
 b68:	ec 2f       	mov	r30, r28
 b6a:	f0 e0       	ldi	r31, 0x00	; 0
 b6c:	e1 5b       	subi	r30, 0xB1	; 177
 b6e:	f7 4f       	sbci	r31, 0xF7	; 247
 b70:	e4 91       	lpm	r30, Z
 b72:	e0 93 65 00 	sts	0x0065, r30
}		
 b76:	cf 91       	pop	r28
 b78:	08 95       	ret

00000b7a <DisplayMessage>:
					the following bytes are directly written to the display 
					memory without being decoded using the character font.
					Direct mode is ended by 0xFF.
======================================================================*/
uint8_t* DisplayMessage(uint8_t* ee_adr)
{
 b7a:	cf 92       	push	r12
 b7c:	df 92       	push	r13
 b7e:	ef 92       	push	r14
 b80:	ff 92       	push	r15
 b82:	0f 93       	push	r16
 b84:	1f 93       	push	r17
 b86:	cf 93       	push	r28
 b88:	df 93       	push	r29
 b8a:	0f 92       	push	r0
 b8c:	cd b7       	in	r28, 0x3d	; 61
 b8e:	de b7       	in	r29, 0x3e	; 62
 b90:	6c 01       	movw	r12, r24
	uint8_t ch, m;

	m = eeprom_read_byte(ee_adr);
 b92:	16 d2       	rcall	.+1068   	; 0xfc0 <__eerd_byte_tn4313>
 b94:	e8 2e       	mov	r14, r24
	SetMode(m);
 b96:	d3 df       	rcall	.-90     	; 0xb3e <SetMode>
	ee_adr++;
	dmClearDisplay();
 b98:	38 df       	rcall	.-400    	; 0xa0a <dmClearDisplay>

	ch = eeprom_read_byte(ee_adr++);
 b9a:	86 01       	movw	r16, r12
 b9c:	0e 5f       	subi	r16, 0xFE	; 254
 b9e:	1f 4f       	sbci	r17, 0xFF	; 255
 ba0:	c6 01       	movw	r24, r12
 ba2:	01 96       	adiw	r24, 0x01	; 1
 ba4:	0d d2       	rcall	.+1050   	; 0xfc0 <__eerd_byte_tn4313>
 ba6:	98 2f       	mov	r25, r24
				}
			}
			dmPrintChar(ch);
		}
		ch = eeprom_read_byte(ee_adr++);
		if (!(m & MODE_FRAME)) {			// for scrolling texts
 ba8:	ff 24       	eor	r15, r15
 baa:	88 e0       	ldi	r24, 0x08	; 8
 bac:	e8 22       	and	r14, r24
 bae:	ff 24       	eor	r15, r15
	SetMode(m);
	ee_adr++;
	dmClearDisplay();

	ch = eeprom_read_byte(ee_adr++);
	while (ch) {
 bb0:	47 c0       	rjmp	.+142    	; 0xc40 <DisplayMessage+0xc6>
		if (ch == '~') {					// animation
			ch = eeprom_read_byte(ee_adr++);
 bb2:	68 01       	movw	r12, r16
	ee_adr++;
	dmClearDisplay();

	ch = eeprom_read_byte(ee_adr++);
	while (ch) {
		if (ch == '~') {					// animation
 bb4:	9e 37       	cpi	r25, 0x7E	; 126
 bb6:	b1 f4       	brne	.+44     	; 0xbe4 <DisplayMessage+0x6a>
			ch = eeprom_read_byte(ee_adr++);
 bb8:	08 94       	sec
 bba:	c1 1c       	adc	r12, r1
 bbc:	d1 1c       	adc	r13, r1
 bbe:	c8 01       	movw	r24, r16
 bc0:	ff d1       	rcall	.+1022   	; 0xfc0 <__eerd_byte_tn4313>
			if (ch != '~') {
 bc2:	8e 37       	cpi	r24, 0x7E	; 126
 bc4:	69 f0       	breq	.+26     	; 0xbe0 <DisplayMessage+0x66>
				ch -= 'A';
 bc6:	e8 2f       	mov	r30, r24
 bc8:	e1 54       	subi	r30, 0x41	; 65
				if (ch < ANIMATION_COUNT) {
 bca:	e6 31       	cpi	r30, 0x16	; 22
 bcc:	50 f5       	brcc	.+84     	; 0xc22 <DisplayMessage+0xa8>
					dmDisplayImage((const uint8_t*)pgm_read_word(&animation[ch]));
 bce:	f0 e0       	ldi	r31, 0x00	; 0
 bd0:	ee 0f       	add	r30, r30
 bd2:	ff 1f       	adc	r31, r31
 bd4:	ec 5d       	subi	r30, 0xDC	; 220
 bd6:	fc 4f       	sbci	r31, 0xFC	; 252
 bd8:	85 91       	lpm	r24, Z+
 bda:	94 91       	lpm	r25, Z
 bdc:	2b df       	rcall	.-426    	; 0xa34 <dmDisplayImage>
 bde:	21 c0       	rjmp	.+66     	; 0xc22 <DisplayMessage+0xa8>
				}				
			}
			else {
				dmPrintChar('~');
 be0:	8e e7       	ldi	r24, 0x7E	; 126
 be2:	1e c0       	rjmp	.+60     	; 0xc20 <DisplayMessage+0xa6>
			}
		}
		else if (ch == 0xFF) {				// direct mode
 be4:	9f 3f       	cpi	r25, 0xFF	; 255
 be6:	81 f4       	brne	.+32     	; 0xc08 <DisplayMessage+0x8e>
			ch = eeprom_read_byte(ee_adr++);
 be8:	08 94       	sec
 bea:	c1 1c       	adc	r12, r1
 bec:	d1 1c       	adc	r13, r1
 bee:	c8 01       	movw	r24, r16
 bf0:	e7 d1       	rcall	.+974    	; 0xfc0 <__eerd_byte_tn4313>
			while (ch != 0xFF) {
 bf2:	07 c0       	rjmp	.+14     	; 0xc02 <DisplayMessage+0x88>
				dmPrintByte(ch);
 bf4:	32 df       	rcall	.-412    	; 0xa5a <dmPrintByte>
				ch = eeprom_read_byte(ee_adr++);
 bf6:	86 01       	movw	r16, r12
 bf8:	0f 5f       	subi	r16, 0xFF	; 255
 bfa:	1f 4f       	sbci	r17, 0xFF	; 255
 bfc:	c6 01       	movw	r24, r12
 bfe:	e0 d1       	rcall	.+960    	; 0xfc0 <__eerd_byte_tn4313>
 c00:	68 01       	movw	r12, r16
				dmPrintChar('~');
			}
		}
		else if (ch == 0xFF) {				// direct mode
			ch = eeprom_read_byte(ee_adr++);
			while (ch != 0xFF) {
 c02:	8f 3f       	cpi	r24, 0xFF	; 255
 c04:	b9 f7       	brne	.-18     	; 0xbf4 <DisplayMessage+0x7a>
 c06:	0d c0       	rjmp	.+26     	; 0xc22 <DisplayMessage+0xa8>
				dmPrintByte(ch);
				ch = eeprom_read_byte(ee_adr++);
			}
		}
		else {								// character
			if (ch == '^') {				// special character
 c08:	9e 35       	cpi	r25, 0x5E	; 94
 c0a:	49 f4       	brne	.+18     	; 0xc1e <DisplayMessage+0xa4>
				ch = eeprom_read_byte(ee_adr++);
 c0c:	08 94       	sec
 c0e:	c1 1c       	adc	r12, r1
 c10:	d1 1c       	adc	r13, r1
 c12:	c8 01       	movw	r24, r16
 c14:	d5 d1       	rcall	.+938    	; 0xfc0 <__eerd_byte_tn4313>
 c16:	98 2f       	mov	r25, r24
				if (ch != '^') {
 c18:	8e 35       	cpi	r24, 0x5E	; 94
 c1a:	09 f0       	breq	.+2      	; 0xc1e <DisplayMessage+0xa4>
					ch += 63;
 c1c:	91 5c       	subi	r25, 0xC1	; 193
				}
			}
			dmPrintChar(ch);
 c1e:	89 2f       	mov	r24, r25
 c20:	29 df       	rcall	.-430    	; 0xa74 <dmPrintChar>
		}
		ch = eeprom_read_byte(ee_adr++);
 c22:	86 01       	movw	r16, r12
 c24:	0f 5f       	subi	r16, 0xFF	; 255
 c26:	1f 4f       	sbci	r17, 0xFF	; 255
 c28:	c6 01       	movw	r24, r12
 c2a:	ca d1       	rcall	.+916    	; 0xfc0 <__eerd_byte_tn4313>
 c2c:	98 2f       	mov	r25, r24
		if (!(m & MODE_FRAME)) {			// for scrolling texts
 c2e:	e1 14       	cp	r14, r1
 c30:	f1 04       	cpc	r15, r1
 c32:	31 f4       	brne	.+12     	; 0xc40 <DisplayMessage+0xc6>
			if (ch) { dmPrintByte(0); }		// print a narrow space between characters, except for the last one
 c34:	88 23       	and	r24, r24
 c36:	21 f0       	breq	.+8      	; 0xc40 <DisplayMessage+0xc6>
 c38:	80 e0       	ldi	r24, 0x00	; 0
 c3a:	99 83       	std	Y+1, r25	; 0x01
 c3c:	0e df       	rcall	.-484    	; 0xa5a <dmPrintByte>
 c3e:	99 81       	ldd	r25, Y+1	; 0x01
	SetMode(m);
	ee_adr++;
	dmClearDisplay();

	ch = eeprom_read_byte(ee_adr++);
	while (ch) {
 c40:	99 23       	and	r25, r25
 c42:	09 f0       	breq	.+2      	; 0xc46 <DisplayMessage+0xcc>
 c44:	b6 cf       	rjmp	.-148    	; 0xbb2 <DisplayMessage+0x38>
		ch = eeprom_read_byte(ee_adr++);
		if (!(m & MODE_FRAME)) {			// for scrolling texts
			if (ch) { dmPrintByte(0); }		// print a narrow space between characters, except for the last one
		}
	}
	ch = eeprom_read_byte(ee_adr);			// read mode byte of next message
 c46:	c8 01       	movw	r24, r16
 c48:	bb d1       	rcall	.+886    	; 0xfc0 <__eerd_byte_tn4313>
	if (ch)		{ return(ee_adr); }
 c4a:	88 23       	and	r24, r24
 c4c:	11 f4       	brne	.+4      	; 0xc52 <DisplayMessage+0xd8>
		else	{ return((uint8_t*) messages); }	// restart all-over if mode byte is 0
 c4e:	00 e0       	ldi	r16, 0x00	; 0
 c50:	10 e0       	ldi	r17, 0x00	; 0
}
 c52:	c8 01       	movw	r24, r16
 c54:	0f 90       	pop	r0
 c56:	df 91       	pop	r29
 c58:	cf 91       	pop	r28
 c5a:	1f 91       	pop	r17
 c5c:	0f 91       	pop	r16
 c5e:	ff 90       	pop	r15
 c60:	ef 90       	pop	r14
 c62:	df 90       	pop	r13
 c64:	cf 90       	pop	r12
 c66:	08 95       	ret

00000c68 <GoToSleep>:
	Description:	Put the controller into sleep mode and prepare for
					wake-up by a pin change interrupt.
======================================================================*/
void GoToSleep(void)
{
	dmClearDisplay();
 c68:	d0 de       	rcall	.-608    	; 0xa0a <dmClearDisplay>
	#else
		//round up by default
		__ticks_dc = (uint32_t)(ceil(fabs(__tmp)));
	#endif

	__builtin_avr_delay_cycles(__ticks_dc);
 c6a:	8f ef       	ldi	r24, 0xFF	; 255
 c6c:	94 e3       	ldi	r25, 0x34	; 52
 c6e:	ac e0       	ldi	r26, 0x0C	; 12
 c70:	81 50       	subi	r24, 0x01	; 1
 c72:	90 40       	sbci	r25, 0x00	; 0
 c74:	a0 40       	sbci	r26, 0x00	; 0
 c76:	e1 f7       	brne	.-8      	; 0xc70 <GoToSleep+0x8>
 c78:	00 c0       	rjmp	.+0      	; 0xc7a <GoToSleep+0x12>
 c7a:	00 00       	nop
	_delay_ms(1000);
	GIFR = (1<<PCIF2);				// clear interrupt flag
 c7c:	80 e1       	ldi	r24, 0x10	; 16
 c7e:	8a bf       	out	0x3a, r24	; 58
	PCMSK2 = (1<<PCINT17);			// enable pin change interrupt
 c80:	90 e4       	ldi	r25, 0x40	; 64
 c82:	95 b9       	out	0x05, r25	; 5
	GIMSK = (1<<PCIE2);				// enable pin change interrupt
 c84:	8b bf       	out	0x3b, r24	; 59
	set_sleep_mode(SLEEP_MODE_PWR_DOWN);
 c86:	85 b7       	in	r24, 0x35	; 53
 c88:	80 65       	ori	r24, 0x50	; 80
 c8a:	85 bf       	out	0x35, r24	; 53
	sleep_mode();
 c8c:	85 b7       	in	r24, 0x35	; 53
 c8e:	80 62       	ori	r24, 0x20	; 32
 c90:	85 bf       	out	0x35, r24	; 53
 c92:	88 95       	sleep
 c94:	85 b7       	in	r24, 0x35	; 53
 c96:	8f 7d       	andi	r24, 0xDF	; 223
 c98:	85 bf       	out	0x35, r24	; 53
	GIMSK = 0;						// disable all external interrupts (including pin change)
 c9a:	1b be       	out	0x3b, r1	; 59
	dmPrintChar(131);				// happy smiley
 c9c:	83 e8       	ldi	r24, 0x83	; 131
 c9e:	ea de       	rcall	.-556    	; 0xa74 <dmPrintChar>
 ca0:	8f e7       	ldi	r24, 0x7F	; 127
 ca2:	9a e1       	ldi	r25, 0x1A	; 26
 ca4:	a6 e0       	ldi	r26, 0x06	; 6
 ca6:	81 50       	subi	r24, 0x01	; 1
 ca8:	90 40       	sbci	r25, 0x00	; 0
 caa:	a0 40       	sbci	r26, 0x00	; 0
 cac:	e1 f7       	brne	.-8      	; 0xca6 <GoToSleep+0x3e>
 cae:	00 c0       	rjmp	.+0      	; 0xcb0 <GoToSleep+0x48>
 cb0:	00 00       	nop
	_delay_ms(500);
	msg_ptr = DisplayMessage((uint8_t*) messages);
 cb2:	80 e0       	ldi	r24, 0x00	; 0
 cb4:	90 e0       	ldi	r25, 0x00	; 0
 cb6:	61 df       	rcall	.-318    	; 0xb7a <DisplayMessage>
 cb8:	90 93 63 00 	sts	0x0063, r25
 cbc:	80 93 62 00 	sts	0x0062, r24
}
 cc0:	08 95       	ret

00000cc2 <__vector_13>:
 * interrupt service routines *
 ******************************/

ISR(TIMER0_COMPA_vect)
// display interrupt
{
 cc2:	1f 92       	push	r1
 cc4:	0f 92       	push	r0
 cc6:	0f b6       	in	r0, 0x3f	; 63
 cc8:	0f 92       	push	r0
 cca:	11 24       	eor	r1, r1
 ccc:	2f 93       	push	r18
 cce:	3f 93       	push	r19
 cd0:	4f 93       	push	r20
 cd2:	5f 93       	push	r21
 cd4:	6f 93       	push	r22
 cd6:	7f 93       	push	r23
 cd8:	8f 93       	push	r24
 cda:	9f 93       	push	r25
 cdc:	af 93       	push	r26
 cde:	bf 93       	push	r27
 ce0:	ef 93       	push	r30
 ce2:	ff 93       	push	r31
	OCR0A += OCR0A_CYCLE_TIME;				// setup next cycle
 ce4:	86 b7       	in	r24, 0x36	; 54
 ce6:	8c 5f       	subi	r24, 0xFC	; 252
 ce8:	86 bf       	out	0x36, r24	; 54

	dmDisplay();							// show next column on dot matrix display
 cea:	d6 dd       	rcall	.-1108   	; 0x898 <dmDisplay>
}
 cec:	ff 91       	pop	r31
 cee:	ef 91       	pop	r30
 cf0:	bf 91       	pop	r27
 cf2:	af 91       	pop	r26
 cf4:	9f 91       	pop	r25
 cf6:	8f 91       	pop	r24
 cf8:	7f 91       	pop	r23
 cfa:	6f 91       	pop	r22
 cfc:	5f 91       	pop	r21
 cfe:	4f 91       	pop	r20
 d00:	3f 91       	pop	r19
 d02:	2f 91       	pop	r18
 d04:	0f 90       	pop	r0
 d06:	0f be       	out	0x3f, r0	; 63
 d08:	0f 90       	pop	r0
 d0a:	1f 90       	pop	r1
 d0c:	18 95       	reti

00000d0e <__vector_14>:


ISR(TIMER0_COMPB_vect)
// system timer interrupt
{
 d0e:	1f 92       	push	r1
 d10:	0f 92       	push	r0
 d12:	0f b6       	in	r0, 0x3f	; 63
 d14:	0f 92       	push	r0
 d16:	11 24       	eor	r1, r1
 d18:	2f 93       	push	r18
 d1a:	3f 93       	push	r19
 d1c:	4f 93       	push	r20
 d1e:	5f 93       	push	r21
 d20:	6f 93       	push	r22
 d22:	7f 93       	push	r23
 d24:	8f 93       	push	r24
 d26:	9f 93       	push	r25
 d28:	af 93       	push	r26
 d2a:	bf 93       	push	r27
 d2c:	ef 93       	push	r30
 d2e:	ff 93       	push	r31
	static uint8_t scroll_timer = 1;
	static uint8_t pb_timer = 0;			// push button timer
	uint8_t temp;
		
	OCR0B += OCR0B_CYCLE_TIME;				// setup next cycle
 d30:	8c b7       	in	r24, 0x3c	; 60
 d32:	89 5d       	subi	r24, 0xD9	; 217
 d34:	8c bf       	out	0x3c, r24	; 60

	if (scroll_timer) {
 d36:	80 91 66 00 	lds	r24, 0x0066
 d3a:	88 23       	and	r24, r24
 d3c:	21 f0       	breq	.+8      	; 0xd46 <__vector_14+0x38>
		scroll_timer--;
 d3e:	81 50       	subi	r24, 0x01	; 1
 d40:	80 93 66 00 	sts	0x0066, r24
 d44:	05 c0       	rjmp	.+10     	; 0xd50 <__vector_14+0x42>
	}
	else {
		scroll_timer = scroll_speed;		// restart timer
 d46:	80 91 65 00 	lds	r24, 0x0065
 d4a:	80 93 66 00 	sts	0x0066, r24
		dmScroll();							// do a scrolling step
 d4e:	11 de       	rcall	.-990    	; 0x972 <dmScroll>
	}
	
	// push button sampling
	temp = ~PB_PIN;							// sample push button
 d50:	80 b3       	in	r24, 0x10	; 16
	temp &= PB_MASK;						// extract push button state
	if (temp == 0) {						// --- button not pressed ---
 d52:	86 ff       	sbrs	r24, 6
 d54:	08 c0       	rjmp	.+16     	; 0xd66 <__vector_14+0x58>
		if (button & PB_PRESS) {			// former state = pressed?
 d56:	80 91 64 00 	lds	r24, 0x0064
 d5a:	80 ff       	sbrs	r24, 0
 d5c:	1c c0       	rjmp	.+56     	; 0xd96 <__vector_14+0x88>
			button &= ~(PB_PRESS | PB_ACK);	// -> issue release event
 d5e:	80 91 64 00 	lds	r24, 0x0064
 d62:	8e 77       	andi	r24, 0x7E	; 126
 d64:	12 c0       	rjmp	.+36     	; 0xd8a <__vector_14+0x7c>
		}
	}
	else {									// --- button pressed ---
		if ((button & PB_PRESS) == 0) {		// former state = button released?
 d66:	80 91 64 00 	lds	r24, 0x0064
 d6a:	80 fd       	sbrc	r24, 0
 d6c:	05 c0       	rjmp	.+10     	; 0xd78 <__vector_14+0x6a>
			button = PB_PRESS;				// issue new press event
 d6e:	81 e0       	ldi	r24, 0x01	; 1
 d70:	80 93 64 00 	sts	0x0064, r24
			pb_timer = PB_LONGPRESS_DELAY;	// start push button timer
 d74:	84 e6       	ldi	r24, 0x64	; 100
 d76:	0d c0       	rjmp	.+26     	; 0xd92 <__vector_14+0x84>
		}
		else {
			if (button == PB_PRESS) {		// holding key pressed
 d78:	80 91 64 00 	lds	r24, 0x0064
 d7c:	81 30       	cpi	r24, 0x01	; 1
 d7e:	59 f4       	brne	.+22     	; 0xd96 <__vector_14+0x88>
				if (pb_timer == 0) {		// if push button timer has elapsed
 d80:	80 91 68 00 	lds	r24, 0x0068
 d84:	88 23       	and	r24, r24
 d86:	21 f4       	brne	.+8      	; 0xd90 <__vector_14+0x82>
					button = PB_LONGPRESS;	// issue long event
 d88:	83 e0       	ldi	r24, 0x03	; 3
 d8a:	80 93 64 00 	sts	0x0064, r24
 d8e:	03 c0       	rjmp	.+6      	; 0xd96 <__vector_14+0x88>
				}
				else {
					pb_timer--;
 d90:	81 50       	subi	r24, 0x01	; 1
 d92:	80 93 68 00 	sts	0x0068, r24
				}
			}			
		}		
	}
	
}
 d96:	ff 91       	pop	r31
 d98:	ef 91       	pop	r30
 d9a:	bf 91       	pop	r27
 d9c:	af 91       	pop	r26
 d9e:	9f 91       	pop	r25
 da0:	8f 91       	pop	r24
 da2:	7f 91       	pop	r23
 da4:	6f 91       	pop	r22
 da6:	5f 91       	pop	r21
 da8:	4f 91       	pop	r20
 daa:	3f 91       	pop	r19
 dac:	2f 91       	pop	r18
 dae:	0f 90       	pop	r0
 db0:	0f be       	out	0x3f, r0	; 63
 db2:	0f 90       	pop	r0
 db4:	1f 90       	pop	r1
 db6:	18 95       	reti

00000db8 <__vector_20>:


ISR(PCINT_D_vect)
// pin change interrupt (for wake-up)
{
 db8:	1f 92       	push	r1
 dba:	0f 92       	push	r0
 dbc:	0f b6       	in	r0, 0x3f	; 63
 dbe:	0f 92       	push	r0
 dc0:	11 24       	eor	r1, r1
}
 dc2:	0f 90       	pop	r0
 dc4:	0f be       	out	0x3f, r0	; 63
 dc6:	0f 90       	pop	r0
 dc8:	1f 90       	pop	r1
 dca:	18 95       	reti

00000dcc <__vector_7>:



ISR(USART0_RX_vect)
{
 dcc:	1f 92       	push	r1
 dce:	0f 92       	push	r0
 dd0:	0f b6       	in	r0, 0x3f	; 63
 dd2:	0f 92       	push	r0
 dd4:	11 24       	eor	r1, r1
 dd6:	2f 93       	push	r18
 dd8:	3f 93       	push	r19
 dda:	4f 93       	push	r20
 ddc:	5f 93       	push	r21
 dde:	6f 93       	push	r22
 de0:	7f 93       	push	r23
 de2:	8f 93       	push	r24
 de4:	9f 93       	push	r25
 de6:	af 93       	push	r26
 de8:	bf 93       	push	r27
 dea:	cf 93       	push	r28
 dec:	ef 93       	push	r30
 dee:	ff 93       	push	r31
	static uint8_t state = IDLE;
	static uint8_t val;
	uint8_t ch;

	if (UCSRA & (1<<FE)) { return; }	// framing error? -> return
 df0:	5c 99       	sbic	0x0b, 4	; 11
 df2:	a8 c0       	rjmp	.+336    	; 0xf44 <__vector_7+0x178>
	ch = UDR;							// read received character
 df4:	cc b1       	in	r28, 0x0c	; 12
	if (ch == 27) { state = RESET; }	// <ESC> resets the state machine
 df6:	cb 31       	cpi	r28, 0x1B	; 27
 df8:	19 f4       	brne	.+6      	; 0xe00 <__vector_7+0x34>
 dfa:	82 e0       	ldi	r24, 0x02	; 2
 dfc:	80 93 69 00 	sts	0x0069, r24
	if (state >= EE_NORMAL) {
 e00:	80 91 69 00 	lds	r24, 0x0069
 e04:	85 30       	cpi	r24, 0x05	; 5
 e06:	18 f0       	brcs	.+6      	; 0xe0e <__vector_7+0x42>
		dmClearDisplay();
 e08:	00 de       	rcall	.-1024   	; 0xa0a <dmClearDisplay>
		dmPrintChar(ch);
 e0a:	8c 2f       	mov	r24, r28
 e0c:	33 de       	rcall	.-922    	; 0xa74 <dmPrintChar>
	}	

	switch (state) {
 e0e:	e0 91 69 00 	lds	r30, 0x0069
 e12:	f0 e0       	ldi	r31, 0x00	; 0
 e14:	e9 30       	cpi	r30, 0x09	; 9
 e16:	f1 05       	cpc	r31, r1
 e18:	08 f0       	brcs	.+2      	; 0xe1c <__vector_7+0x50>
 e1a:	94 c0       	rjmp	.+296    	; 0xf44 <__vector_7+0x178>
 e1c:	eb 5e       	subi	r30, 0xEB	; 235
 e1e:	ff 4f       	sbci	r31, 0xFF	; 255
 e20:	09 94       	ijmp
		// cases for initialization sequence
		case IDLE:
			if (ch == AUTH1_CHAR)	{ state = AUTH; }
 e22:	c8 34       	cpi	r28, 0x48	; 72
 e24:	09 f0       	breq	.+2      	; 0xe28 <__vector_7+0x5c>
 e26:	8e c0       	rjmp	.+284    	; 0xf44 <__vector_7+0x178>
 e28:	81 e0       	ldi	r24, 0x01	; 1
 e2a:	82 c0       	rjmp	.+260    	; 0xf30 <__vector_7+0x164>
			else					{ state = IDLE; }
			break;
		case AUTH:
			if (ch == EE_AUTH2_CHAR)		{ state = EE_NORMAL; }
 e2c:	cc 34       	cpi	r28, 0x4C	; 76
 e2e:	09 f4       	brne	.+2      	; 0xe32 <__vector_7+0x66>
 e30:	7e c0       	rjmp	.+252    	; 0xf2e <__vector_7+0x162>
			else if (ch == DISP_AUTH2_CHAR)	{ state = DISP_SET_MODE; }
 e32:	c4 34       	cpi	r28, 0x44	; 68
 e34:	79 f4       	brne	.+30     	; 0xe54 <__vector_7+0x88>
 e36:	83 e0       	ldi	r24, 0x03	; 3
 e38:	7b c0       	rjmp	.+246    	; 0xf30 <__vector_7+0x164>
			else							{ state = IDLE; }
			break;
		case RESET:
			msg_ptr = (uint8_t*) messages;
 e3a:	80 e0       	ldi	r24, 0x00	; 0
 e3c:	90 e0       	ldi	r25, 0x00	; 0
 e3e:	90 93 63 00 	sts	0x0063, r25
 e42:	80 93 62 00 	sts	0x0062, r24
			ee_write_ptr = (uint8_t*) messages;
 e46:	90 93 61 00 	sts	0x0061, r25
 e4a:	80 93 60 00 	sts	0x0060, r24
			dmClearDisplay();
 e4e:	dd dd       	rcall	.-1094   	; 0xa0a <dmClearDisplay>
			dmPrintChar(129);						// show logo
 e50:	81 e8       	ldi	r24, 0x81	; 129
 e52:	10 de       	rcall	.-992    	; 0xa74 <dmPrintChar>
			state = IDLE;
 e54:	10 92 69 00 	sts	0x0069, r1
			break;
 e58:	75 c0       	rjmp	.+234    	; 0xf44 <__vector_7+0x178>
			
		// cases for serial display mode
		case DISP_SET_MODE:
			dmClearDisplay();
 e5a:	d7 dd       	rcall	.-1106   	; 0xa0a <dmClearDisplay>
			SetMode(ch);
 e5c:	8c 2f       	mov	r24, r28
 e5e:	6f de       	rcall	.-802    	; 0xb3e <SetMode>
			state = DISP_CHAR;
 e60:	84 e0       	ldi	r24, 0x04	; 4
 e62:	66 c0       	rjmp	.+204    	; 0xf30 <__vector_7+0x164>
			break;
		case DISP_CHAR:
			if ((ch == 13) || (ch == 10)) {	dmClearDisplay(); }		// chr(13) = <CR>, chr(10) = <LF>
 e64:	cd 30       	cpi	r28, 0x0D	; 13
 e66:	11 f0       	breq	.+4      	; 0xe6c <__vector_7+0xa0>
 e68:	ca 30       	cpi	r28, 0x0A	; 10
 e6a:	11 f4       	brne	.+4      	; 0xe70 <__vector_7+0xa4>
 e6c:	ce dd       	rcall	.-1124   	; 0xa0a <dmClearDisplay>
 e6e:	6a c0       	rjmp	.+212    	; 0xf44 <__vector_7+0x178>
			else { dmPrintChar(ch); dmPrintByte(0); }				// print character followed by empty column
 e70:	8c 2f       	mov	r24, r28
 e72:	00 de       	rcall	.-1024   	; 0xa74 <dmPrintChar>
 e74:	80 e0       	ldi	r24, 0x00	; 0
 e76:	f1 dd       	rcall	.-1054   	; 0xa5a <dmPrintByte>
 e78:	65 c0       	rjmp	.+202    	; 0xf44 <__vector_7+0x178>
			break;
			
		// cases for writing to EEPROM
		case EE_NORMAL:
			if ((ch == 13) || (ch == 10)) {			// chr(13) = <CR>, chr(10) = <LF>
 e7a:	cd 30       	cpi	r28, 0x0D	; 13
 e7c:	11 f0       	breq	.+4      	; 0xe82 <__vector_7+0xb6>
 e7e:	ca 30       	cpi	r28, 0x0A	; 10
 e80:	81 f4       	brne	.+32     	; 0xea2 <__vector_7+0xd6>
				eeprom_write_byte(ee_write_ptr++, 0);
 e82:	80 91 60 00 	lds	r24, 0x0060
 e86:	90 91 61 00 	lds	r25, 0x0061
 e8a:	9c 01       	movw	r18, r24
 e8c:	2f 5f       	subi	r18, 0xFF	; 255
 e8e:	3f 4f       	sbci	r19, 0xFF	; 255
 e90:	30 93 61 00 	sts	0x0061, r19
 e94:	20 93 60 00 	sts	0x0060, r18
 e98:	60 e0       	ldi	r22, 0x00	; 0
 e9a:	9a d0       	rcall	.+308    	; 0xfd0 <__eewr_byte_tn4313>
				state = EE_NORMAL_CRLF;
 e9c:	86 e0       	ldi	r24, 0x06	; 6
 e9e:	80 93 69 00 	sts	0x0069, r24
			}
			// no break -> fall through to next case
		case EE_NORMAL_CRLF:						// normal case after reception of first <CR> or <LF>
			if (ch == '^') { state = EE_SPECIAL_CHAR; }
 ea2:	ce 35       	cpi	r28, 0x5E	; 94
 ea4:	11 f4       	brne	.+4      	; 0xeaa <__vector_7+0xde>
 ea6:	87 e0       	ldi	r24, 0x07	; 7
 ea8:	43 c0       	rjmp	.+134    	; 0xf30 <__vector_7+0x164>
			else if (ch == '$') { val = 0;  state = EE_HEX_CODE; }
 eaa:	c4 32       	cpi	r28, 0x24	; 36
 eac:	21 f4       	brne	.+8      	; 0xeb6 <__vector_7+0xea>
 eae:	10 92 6a 00 	sts	0x006A, r1
 eb2:	88 e0       	ldi	r24, 0x08	; 8
 eb4:	3d c0       	rjmp	.+122    	; 0xf30 <__vector_7+0x164>
			else if (ch >= ' ') {					// ignore non-printing characters
 eb6:	c0 32       	cpi	r28, 0x20	; 32
 eb8:	08 f4       	brcc	.+2      	; 0xebc <__vector_7+0xf0>
 eba:	44 c0       	rjmp	.+136    	; 0xf44 <__vector_7+0x178>
 ebc:	11 c0       	rjmp	.+34     	; 0xee0 <__vector_7+0x114>
				eeprom_write_byte(ee_write_ptr++, ch);
				state = EE_NORMAL;
			}
			break;
		case EE_SPECIAL_CHAR:
			if (ch == '^')	{ eeprom_write_byte(ee_write_ptr++, '^'); }
 ebe:	ce 35       	cpi	r28, 0x5E	; 94
 ec0:	71 f4       	brne	.+28     	; 0xede <__vector_7+0x112>
 ec2:	80 91 60 00 	lds	r24, 0x0060
 ec6:	90 91 61 00 	lds	r25, 0x0061
 eca:	9c 01       	movw	r18, r24
 ecc:	2f 5f       	subi	r18, 0xFF	; 255
 ece:	3f 4f       	sbci	r19, 0xFF	; 255
 ed0:	30 93 61 00 	sts	0x0061, r19
 ed4:	20 93 60 00 	sts	0x0060, r18
 ed8:	6e e5       	ldi	r22, 0x5E	; 94
 eda:	7a d0       	rcall	.+244    	; 0xfd0 <__eewr_byte_tn4313>
 edc:	01 c0       	rjmp	.+2      	; 0xee0 <__vector_7+0x114>
			else			{ ch += 63; }
 ede:	c1 5c       	subi	r28, 0xC1	; 193
			eeprom_write_byte(ee_write_ptr++, ch);
 ee0:	80 91 60 00 	lds	r24, 0x0060
 ee4:	90 91 61 00 	lds	r25, 0x0061
 ee8:	9c 01       	movw	r18, r24
 eea:	2f 5f       	subi	r18, 0xFF	; 255
 eec:	3f 4f       	sbci	r19, 0xFF	; 255
 eee:	30 93 61 00 	sts	0x0061, r19
 ef2:	20 93 60 00 	sts	0x0060, r18
 ef6:	6c 2f       	mov	r22, r28
 ef8:	19 c0       	rjmp	.+50     	; 0xf2c <__vector_7+0x160>
			state = EE_NORMAL;
			break;
		case EE_HEX_CODE:
			if (ch == '$')	{ val = '$'; ch = ' '; }
 efa:	c4 32       	cpi	r28, 0x24	; 36
 efc:	21 f4       	brne	.+8      	; 0xf06 <__vector_7+0x13a>
 efe:	c0 93 6a 00 	sts	0x006A, r28
 f02:	c0 e2       	ldi	r28, 0x20	; 32
 f04:	03 c0       	rjmp	.+6      	; 0xf0c <__vector_7+0x140>
			if (ch >= 'A') { ch -= ('A' - '9' - 1); }
 f06:	c1 34       	cpi	r28, 0x41	; 65
 f08:	08 f0       	brcs	.+2      	; 0xf0c <__vector_7+0x140>
 f0a:	c7 50       	subi	r28, 0x07	; 7
			ch -= '0';							// map characters '0'..'9' and 'A'..'F' to values 0..15
 f0c:	c0 53       	subi	r28, 0x30	; 48
			if (ch > 15) {						// any character below '0' or above 'F' terminates hex input
 f0e:	c0 31       	cpi	r28, 0x10	; 16
 f10:	90 f0       	brcs	.+36     	; 0xf36 <__vector_7+0x16a>
				eeprom_write_byte(ee_write_ptr++, val);
 f12:	80 91 60 00 	lds	r24, 0x0060
 f16:	90 91 61 00 	lds	r25, 0x0061
 f1a:	9c 01       	movw	r18, r24
 f1c:	2f 5f       	subi	r18, 0xFF	; 255
 f1e:	3f 4f       	sbci	r19, 0xFF	; 255
 f20:	30 93 61 00 	sts	0x0061, r19
 f24:	20 93 60 00 	sts	0x0060, r18
 f28:	60 91 6a 00 	lds	r22, 0x006A
 f2c:	51 d0       	rcall	.+162    	; 0xfd0 <__eewr_byte_tn4313>
				state = EE_NORMAL;
 f2e:	85 e0       	ldi	r24, 0x05	; 5
 f30:	80 93 69 00 	sts	0x0069, r24
 f34:	07 c0       	rjmp	.+14     	; 0xf44 <__vector_7+0x178>
			}
			else { val <<= 4;  val += ch; }
 f36:	80 91 6a 00 	lds	r24, 0x006A
 f3a:	82 95       	swap	r24
 f3c:	80 7f       	andi	r24, 0xF0	; 240
 f3e:	8c 0f       	add	r24, r28
 f40:	80 93 6a 00 	sts	0x006A, r24
			break;
	}
}
 f44:	ff 91       	pop	r31
 f46:	ef 91       	pop	r30
 f48:	cf 91       	pop	r28
 f4a:	bf 91       	pop	r27
 f4c:	af 91       	pop	r26
 f4e:	9f 91       	pop	r25
 f50:	8f 91       	pop	r24
 f52:	7f 91       	pop	r23
 f54:	6f 91       	pop	r22
 f56:	5f 91       	pop	r21
 f58:	4f 91       	pop	r20
 f5a:	3f 91       	pop	r19
 f5c:	2f 91       	pop	r18
 f5e:	0f 90       	pop	r0
 f60:	0f be       	out	0x3f, r0	; 63
 f62:	0f 90       	pop	r0
 f64:	1f 90       	pop	r1
 f66:	18 95       	reti

00000f68 <main>:
 * main *
 ********/

int main(void)
{
	InitHardware();
 f68:	c9 dd       	rcall	.-1134   	; 0xafc <InitHardware>
	dmInit();
 f6a:	5e dd       	rcall	.-1348   	; 0xa28 <dmInit>
	sei();									// enable interrupts
 f6c:	78 94       	sei

	GoToSleep();
 f6e:	7c de       	rcall	.-776    	; 0xc68 <GoToSleep>
	button |= PB_ACK;
 f70:	80 91 64 00 	lds	r24, 0x0064
 f74:	80 68       	ori	r24, 0x80	; 128
 f76:	80 93 64 00 	sts	0x0064, r24

	while(1)
	{
		if (button == PB_RELEASE) {			// short button press
 f7a:	80 91 64 00 	lds	r24, 0x0064
 f7e:	88 23       	and	r24, r24
 f80:	71 f4       	brne	.+28     	; 0xf9e <main+0x36>
			msg_ptr = DisplayMessage(msg_ptr);
 f82:	80 91 62 00 	lds	r24, 0x0062
 f86:	90 91 63 00 	lds	r25, 0x0063
 f8a:	f7 dd       	rcall	.-1042   	; 0xb7a <DisplayMessage>
 f8c:	90 93 63 00 	sts	0x0063, r25
 f90:	80 93 62 00 	sts	0x0062, r24
			button |= PB_ACK;
 f94:	80 91 64 00 	lds	r24, 0x0064
 f98:	80 68       	ori	r24, 0x80	; 128
 f9a:	80 93 64 00 	sts	0x0064, r24
		}
		
		if (button == PB_LONGPRESS) {		// button pressed for some seconds
 f9e:	80 91 64 00 	lds	r24, 0x0064
 fa2:	83 30       	cpi	r24, 0x03	; 3
 fa4:	51 f7       	brne	.-44     	; 0xf7a <main+0x12>
			dmClearDisplay();
 fa6:	31 dd       	rcall	.-1438   	; 0xa0a <dmClearDisplay>
			dmPrintChar(130);				// sad smiley
 fa8:	82 e8       	ldi	r24, 0x82	; 130
 faa:	64 dd       	rcall	.-1336   	; 0xa74 <dmPrintChar>
 fac:	8f e7       	ldi	r24, 0x7F	; 127
 fae:	9a e1       	ldi	r25, 0x1A	; 26
 fb0:	a6 e0       	ldi	r26, 0x06	; 6
 fb2:	81 50       	subi	r24, 0x01	; 1
 fb4:	90 40       	sbci	r25, 0x00	; 0
 fb6:	a0 40       	sbci	r26, 0x00	; 0
 fb8:	e1 f7       	brne	.-8      	; 0xfb2 <main+0x4a>
 fba:	00 c0       	rjmp	.+0      	; 0xfbc <main+0x54>
 fbc:	00 00       	nop
 fbe:	d7 cf       	rjmp	.-82     	; 0xf6e <main+0x6>

00000fc0 <__eerd_byte_tn4313>:
 fc0:	e1 99       	sbic	0x1c, 1	; 28
 fc2:	fe cf       	rjmp	.-4      	; 0xfc0 <__eerd_byte_tn4313>
 fc4:	1f ba       	out	0x1f, r1	; 31
 fc6:	8e bb       	out	0x1e, r24	; 30
 fc8:	e0 9a       	sbi	0x1c, 0	; 28
 fca:	99 27       	eor	r25, r25
 fcc:	8d b3       	in	r24, 0x1d	; 29
 fce:	08 95       	ret

00000fd0 <__eewr_byte_tn4313>:
 fd0:	26 2f       	mov	r18, r22

00000fd2 <__eewr_r18_tn4313>:
 fd2:	e1 99       	sbic	0x1c, 1	; 28
 fd4:	fe cf       	rjmp	.-4      	; 0xfd2 <__eewr_r18_tn4313>
 fd6:	1c ba       	out	0x1c, r1	; 28
 fd8:	1f ba       	out	0x1f, r1	; 31
 fda:	8e bb       	out	0x1e, r24	; 30
 fdc:	2d bb       	out	0x1d, r18	; 29
 fde:	0f b6       	in	r0, 0x3f	; 63
 fe0:	f8 94       	cli
 fe2:	e2 9a       	sbi	0x1c, 2	; 28
 fe4:	e1 9a       	sbi	0x1c, 1	; 28
 fe6:	0f be       	out	0x3f, r0	; 63
 fe8:	01 96       	adiw	r24, 0x01	; 1
 fea:	08 95       	ret

00000fec <_exit>:
 fec:	f8 94       	cli

00000fee <__stop_program>:
 fee:	ff cf       	rjmp	.-2      	; 0xfee <__stop_program>
