
Hacklace.elf:     file format elf32-avr

Sections:
Idx Name          Size      VMA       LMA       File off  Algn
  0 .text         00000fb8  00000000  00000000  000000d4  2**1
                  CONTENTS, ALLOC, LOAD, READONLY, CODE
  1 .data         00000006  00800060  00000fb8  0000108c  2**0
                  CONTENTS, ALLOC, LOAD, DATA
  2 .bss          000000d3  00800066  00800066  00001092  2**0
                  ALLOC
  3 .eeprom       00000100  00810000  00810000  00001092  2**0
                  CONTENTS, ALLOC, LOAD, READONLY, DATA
  4 .fuse         00000003  00820000  00820000  00001192  2**0
                  CONTENTS, ALLOC, LOAD, DATA
  5 .stab         00000840  00000000  00000000  00001198  2**2
                  CONTENTS, READONLY, DEBUGGING
  6 .stabstr      0000014b  00000000  00000000  000019d8  2**0
                  CONTENTS, READONLY, DEBUGGING
  7 .debug_aranges 000000a8  00000000  00000000  00001b28  2**3
                  CONTENTS, READONLY, DEBUGGING
  8 .debug_info   0000124b  00000000  00000000  00001bd0  2**0
                  CONTENTS, READONLY, DEBUGGING
  9 .debug_abbrev 00000527  00000000  00000000  00002e1b  2**0
                  CONTENTS, READONLY, DEBUGGING
 10 .debug_line   00000752  00000000  00000000  00003342  2**0
                  CONTENTS, READONLY, DEBUGGING
 11 .debug_frame  0000025c  00000000  00000000  00003a94  2**2
                  CONTENTS, READONLY, DEBUGGING
 12 .debug_str    000003a0  00000000  00000000  00003cf0  2**0
                  CONTENTS, READONLY, DEBUGGING
 13 .debug_loc    00000a06  00000000  00000000  00004090  2**0
                  CONTENTS, READONLY, DEBUGGING
 14 .debug_ranges 00000030  00000000  00000000  00004a96  2**0
                  CONTENTS, READONLY, DEBUGGING

Disassembly of section .text:

00000000 <__vectors>:
   0:	2e c4       	rjmp	.+2140   	; 0x85e <__ctors_end>
   2:	48 c4       	rjmp	.+2192   	; 0x894 <__bad_interrupt>
   4:	47 c4       	rjmp	.+2190   	; 0x894 <__bad_interrupt>
   6:	46 c4       	rjmp	.+2188   	; 0x894 <__bad_interrupt>
   8:	45 c4       	rjmp	.+2186   	; 0x894 <__bad_interrupt>
   a:	44 c4       	rjmp	.+2184   	; 0x894 <__bad_interrupt>
   c:	43 c4       	rjmp	.+2182   	; 0x894 <__bad_interrupt>
   e:	cf c6       	rjmp	.+3486   	; 0xdae <__vector_7>
  10:	41 c4       	rjmp	.+2178   	; 0x894 <__bad_interrupt>
  12:	40 c4       	rjmp	.+2176   	; 0x894 <__bad_interrupt>
  14:	3f c4       	rjmp	.+2174   	; 0x894 <__bad_interrupt>
  16:	3e c4       	rjmp	.+2172   	; 0x894 <__bad_interrupt>
  18:	3d c4       	rjmp	.+2170   	; 0x894 <__bad_interrupt>
  1a:	44 c6       	rjmp	.+3208   	; 0xca4 <__vector_13>
  1c:	69 c6       	rjmp	.+3282   	; 0xcf0 <__vector_14>
  1e:	3a c4       	rjmp	.+2164   	; 0x894 <__bad_interrupt>
  20:	39 c4       	rjmp	.+2162   	; 0x894 <__bad_interrupt>
  22:	38 c4       	rjmp	.+2160   	; 0x894 <__bad_interrupt>
  24:	37 c4       	rjmp	.+2158   	; 0x894 <__bad_interrupt>
  26:	36 c4       	rjmp	.+2156   	; 0x894 <__bad_interrupt>
  28:	b8 c6       	rjmp	.+3440   	; 0xd9a <__vector_20>
  2a:	ec c6       	rjmp	.+3544   	; 0xe04 <__vector_7+0x56>
  2c:	f0 c6       	rjmp	.+3552   	; 0xe0e <__vector_7+0x60>
  2e:	f6 c6       	rjmp	.+3564   	; 0xe1c <__vector_7+0x6e>
  30:	05 c7       	rjmp	.+3594   	; 0xe3c <__vector_7+0x8e>
  32:	09 c7       	rjmp	.+3602   	; 0xe46 <__vector_7+0x98>
  34:	13 c7       	rjmp	.+3622   	; 0xe5c <__vector_7+0xae>
  36:	3d c7       	rjmp	.+3706   	; 0xeb2 <__vector_7+0x104>
  38:	4a c7       	rjmp	.+3732   	; 0xece <__vector_7+0x120>

0000003a <row_bit>:
  3a:	02 04 08 10 01 02 02                                .......

00000041 <row_port>:
  41:	01 01 02 01 00 00 02                                .......

00000048 <col_bit>:
  48:	10 04 08 40 20                                      ...@ 

0000004d <col_port>:
  4d:	02 02 01 01 01                                      .....

00000052 <font>:
  52:	00 00 00 80 80 5f 80 80 80 80 03 00 03 80 80 14     ....._..........
  62:	7f 14 7f 14 24 2a 7f 2a 12 23 13 08 64 62 36 49     ....$*.*.#..db6I
  72:	56 20 50 05 03 80 80 80 1c 22 41 80 80 41 22 1c     V P......"A..A".
  82:	80 80 22 14 6b 14 22 08 08 3e 08 08 50 30 80 80     ..".k."..>..P0..
  92:	80 08 08 08 08 80 60 60 80 80 80 60 10 08 04 03     ......``...`....
  a2:	3e 41 41 3e 80 42 7f 40 80 80 62 51 49 46 80 22     >AA>.B.@..bQIF."
  b2:	41 49 36 80 18 14 12 7f 80 27 45 45 39 80 3c 4a     AI6......'EE9.<J
  c2:	49 31 80 01 71 0d 03 80 36 49 49 36 80 06 49 29     I1..q...6II6..I)
  d2:	1e 80 36 36 80 80 80 56 36 80 80 80 08 14 22 41     ..66...V6....."A
  e2:	80 14 14 14 14 80 41 22 14 08 80 02 51 09 06 80     ......A"....Q...
  f2:	32 49 79 41 3e 7e 09 09 7e 80 7f 49 49 36 80 3e     2IyA>~..~..II6.>
 102:	41 41 22 80 7f 41 41 3e 80 7f 49 49 41 80 7f 09     AA"..AA>..IIA...
 112:	09 01 80 3e 49 49 3a 80 7f 08 08 7f 80 41 7f 41     ...>II:......A.A
 122:	80 80 20 40 40 3f 80 7f 08 14 63 80 7f 40 40 40     .. @@?....c..@@@
 132:	80 7f 02 0c 02 7f 7f 06 18 7f 80 3e 41 41 3e 80     ...........>AA>.
 142:	7f 09 09 06 80 3e 41 21 5e 80 7f 09 19 66 80 26     .....>A!^....f.&
 152:	49 49 32 80 01 01 7f 01 01 3f 40 40 3f 80 07 18     II2......?@@?...
 162:	60 18 07 3f 40 38 40 3f 63 14 08 14 63 03 04 78     `..?@8@?c...c..x
 172:	04 03 61 59 45 43 80 7f 41 41 80 80 03 04 08 10     ..aYEC..AA......
 182:	60 41 41 7f 80 80 02 01 02 80 80 40 40 40 40 80     `AA........@@@@.
 192:	03 04 80 80 80 20 54 54 78 80 7f 48 48 30 80 38     ..... TTx..HH0.8
 1a2:	44 44 28 80 38 44 44 7f 80 38 54 54 48 80 04 7e     DD(.8DD..8TTH..~
 1b2:	05 01 80 48 54 54 38 80 7f 08 08 70 80 7a 80 80     ...HTT8....p.z..
 1c2:	80 80 20 40 3a 80 80 7f 08 14 62 80 41 7f 40 80     .. @:.....b.A.@.
 1d2:	80 7c 04 78 04 78 7c 04 04 78 80 38 44 44 38 80     .|.x.x|..x.8DD8.
 1e2:	7c 24 24 18 80 18 24 24 7c 80 78 04 04 80 80 48     |$$...$$|.x....H
 1f2:	54 54 24 80 04 3f 44 44 80 3c 40 40 7c 80 0c 30     TT$..?DD.<@@|..0
 202:	40 30 8c 3c 40 30 40 3c 44 28 10 28 44 4c 50 50     @0.<@0@<D(.(DLPP
 212:	3c 80 64 54 4c 44 80 08 36 41 80 80 7f 80 80 80     <.dTLD..6A......
 222:	80 41 36 08 80 80 08 04 08 10 08 80 80 80 80 80     .A6.............
 232:	1c 2a 49 49 22 1f 04 7f 40 40 20 12 10 12 20 10     .*II"...@@ ... .
 242:	22 20 22 10 21 54 54 79 80 79 14 14 79 80 39 44     " ".!TTy.y..y.9D
 252:	44 39 80 39 44 44 39 80 3d 40 40 7d 80 3d 40 40     D9.9DD9.=@@}.=@@
 262:	3d 80 7e 25 25 1a 80 6c 1a 6f 1a 6c 7d 5a 1e 5a     =.~%%..l.o.l}Z.Z
 272:	7d 4e 7b 0f 7b 4e 7c 3a 7e 3a 7c 1c 76 2e 76 1c     }N{.{N|:~:|.v.v.
 282:	1e 34 7c 34 1e 0c 12 24 12 0c 08 1c 3e 7f 80 7f     .4|4...$....>...
 292:	3e 1c 08 80 30 3f 01 62 7e 30 3f 02 80 80 1e 3d     >...0?.b~0?....=
 2a2:	77 73 31 60 7e 7b 7e 60 20 5f 23 80 80 7e 7a 7a     ws1`~{~` _#..~zz
 2b2:	7f 80 03 45 79 45 03 10 28 24 28 10 08 14 2a 14     ...EyE..($(...*.
 2c2:	08 00 00 00 00 00 36 36 08 36 36 1e 14 3c 28 78     ......66.66..<(x
 2d2:	44 24 1d 24 44 42 24 1d 62 01 08 65 1c 22 41 46     D$.$DB$.b..e."AF
 2e2:	24 1d 24 4c 08 44 3d 44 08 4c 24 1d 24 46 01 62     $.$L.D=D.L$.$F.b
 2f2:	1d 62 01 42 24 1d 24 42 7c 46 57 46 7c 7f 2a 2a     .b.B$.$B|FWF|.**
 302:	7f 80 2a 7f 41 7f 2a 0a 00 55 00 0a 30 48 4d 33     ..*.A.*..U..0HM3
 312:	07 06 29 79 29 06 08 1c 2a 08 08 08 08 2a 1c 08     ..)y)...*....*..

00000322 <animation>:
 322:	fc 07 97 07 6e 07 5c 07 01 07 f1 06 cd 06 b8 06     ....n.\.........
 332:	ad 06 02 06 a2 05 88 05 23 05 fa 04 a9 04 6c 04     ........#.....l.
 342:	07 04 d4 03 b5 03 96 03 6d 03 4e 03                 ........m.N.

0000034e <lady>:
 34e:	40 40 58 64 68 64 68 70 48 44 4c 48 48 48 48 48     @@XdhdhpHDLHHHHH
 35e:	44 42 71 49 52 64 68 70 70 58 40 40 40 40 ff        DBqIRdhppX@@@@.

0000036d <clock>:
 36d:	1c 22 2e 2a 1c 1c 22 2a 2e 1c 1c 22 2a 2a 1c 1c     .".*.."*..."**..
 37d:	22 2a 3a 1c 1c 22 3a 2a 1c 1c 32 2a 2a 1c 1c 2a     "*:..":*..2**..*
 38d:	2a 2a 1c 1c 26 2a 2a 1c ff                          **..&**..

00000396 <tv_off>:
 396:	7f 7f 7f 7f 7f 1c 1c 1c 1c 1c 08 08 08 08 08 08     ................
 3a6:	08 08 08 08 00 08 08 08 00 00 00 08 00 00 ff        ...............

000003b5 <psycho>:
 3b5:	1c 3e 77 3e 1c 3e 77 63 77 3e 77 63 41 63 77 63     .>w>.>wcw>wcAcwc
 3c5:	41 08 41 63 41 08 1c 08 41 08 1c 3e 1c 08 ff        A.AcA...A..>...

000003d4 <droplet>:
 3d4:	40 40 41 40 40 40 40 43 40 40 40 40 45 40 40 40     @@A@@@@C@@@@E@@@
 3e4:	40 49 40 40 40 40 51 40 40 40 40 21 40 40 40 40     @I@@@@Q@@@@!@@@@
 3f4:	51 40 40 40 48 41 48 40 48 40 41 40 48 40 40 41     Q@@@HAH@H@A@H@@A
 404:	40 40 ff                                            @@.

00000407 <explode>:
 407:	00 02 7d 00 00 00 01 7c 02 00 00 00 7a 00 00 00     ..}....|....z...
 417:	08 72 04 00 00 08 60 10 00 00 10 68 00 00 00 20     .r....`....h... 
 427:	40 10 00 00 00 20 00 00 00 00 00 00 00 00 00 00     @.... ..........
	...
 43f:	00 30 00 00 00 7c 54 38 00 79 3d 24 3d 79 7b 3f     .0...|T8.y=$=y{?
 44f:	16 3f 7b 7e 7c 18 7c 7e 7c 08 10 08 7c 70 08 10     .?{~|.|~|...|p..
 45f:	08 70 60 08 20 10 60 10 40 00 20 00 ff              .p`. .`.@. ..

0000046c <train>:
 46c:	3f 67 64 24 66 66 24 6f 69 69 3f 01 00 3c 64 66     ?gd$ff$oii?..<df
 47c:	27 67 66 3c 00 00 21 3f 69 69 2f 29 29 2f 69 69     'gf<..!?ii/))/ii
 48c:	3f 21 00 00 20 3e 62 62 23 23 23 62 62 3e 20 00     ?!.. >bb###bb> .
 49c:	00 3c 64 7c 24 3c 24 3c 24 7c 64 3c ff              .<d|$<$<$|d<.

000004a9 <rocket>:
 4a9:	40 3c 43 3c 40 40 7c 43 7c 40 40 3c 43 3c 40 40     @<C<@@|C|@@<C<@@
 4b9:	7c 43 7c 40 40 3c 43 3c 40 40 7c 43 7c 40 20 5e     |C|@@<C<@@|C|@ ^
 4c9:	21 5e 20 10 6f 10 6f 10 08 77 08 77 08 04 7b 04     !^ .o.o..w.w..{.
 4d9:	7b 04 02 75 02 75 02 01 68 01 68 01 20 50 20 50     {..u.u..h.h. P P
 4e9:	20 40 10 20 00 40 20 00 40 00 40 40 00 40 00 00      @. .@ .@.@@.@..
 4f9:	ff                                                  .

000004fa <house>:
 4fa:	40 40 40 40 40 40 60 50 48 44 44 64 54 4c 44 44     @@@@@@`PHDDdTLDD
 50a:	6c 54 6c 44 44 6c 54 6c 7c 44 6c 55 6e 7c 44 6e     lTlDDlTl|DlUn|Dn
 51a:	55 6e 7c 7c 6e 55 6e 7c ff                          Un||nUn|.

00000523 <pong>:
 523:	40 40 09 01 00 00 45 41 00 00 03 01 40 40 00 05     @@....EA....@@..
 533:	01 40 40 00 09 41 40 00 00 50 41 01 00 00 60 41     .@@..A@..PA...`A
 543:	01 00 00 40 51 01 00 00 00 41 51 00 00 00 00 41     ...@Q....AQ....A
 553:	49 00 00 00 41 41 08 00 00 40 45 01 00 00 05 41     I...AA...@E....A
 563:	40 00 03 01 40 40 01 05 00 40 40 00 09 01 40 40     @...@@...@@...@@
 573:	00 10 01 41 40 00 20 41 41 00 00 40 41 41 00 00     ...A@. AA..@AA..
 583:	40 41 01 00 ff                                      @A...

00000588 <hop>:
 588:	20 50 50 20 00 30 48 48 30 00 06 09 09 06 00 01      PP .0HH0.......
 598:	02 02 01 00 00 01 01 00 00 ff                       ..........

000005a2 <glider>:
 5a2:	03 00 00 00 00 03 00 00 00 00 07 00 00 00 00 06     ................
 5b2:	02 00 00 00 05 06 00 00 00 0c 06 00 00 00 08 0e     ................
 5c2:	00 00 00 0a 0c 04 00 00 08 0a 0c 00 00 04 18 0c     ................
 5d2:	00 00 08 10 1c 00 00 00 14 18 08 00 00 10 14 18     ................
 5e2:	00 00 08 30 18 00 00 10 20 38 00 00 00 28 30 10     ...0.... 8...(0.
 5f2:	00 00 20 28 30 00 00 00 00 00 00 00 20 28 30 ff     .. (0....... (0.

00000602 <tetris>:
 602:	00 00 07 00 00 00 00 0e 00 00 00 08 08 08 00 10     ................
 612:	10 10 00 00 20 20 20 00 00 40 43 43 00 00 40 46     ....   ..@CC..@F
 622:	46 00 00 40 40 4c 0c 00 40 40 40 18 18 40 40 40     F..@@L..@@@..@@@
 632:	60 60 00 00 00 20 20 40 40 40 60 60 00 01 07 44     ``...  @@@``...D
 642:	40 00 02 0e 48 40 00 18 08 4c 40 30 10 18 40 40     @...H@...L@0..@@
 652:	60 20 30 40 40 60 27 34 40 40 7e 30 30 40 40 7e     ` 0@@`'4@@~00@@~
 662:	31 33 40 40 7e 32 36 40 40 7e 30 36 44 40 7e 30     13@@~26@@~06D@~0
 672:	30 4c 48 7e 30 30 50 58 7e 30 30 60 70 5e 10 10     0LH~00PX~00`p^..
 682:	40 50 7e 30 30 60 70 7c 20 20 40 60 7c 21 27 44     @P~00`p|  @`|!'D
 692:	60 7c 22 2e 48 60 7c 38 28 4c 60 7c 3b 2b 4c 60     `|".H`|8(L`|;+L`
 6a2:	7c 3e 2e 4c 60 7c 3f 2f 4d 60 ff                    |>.L`|?/M`.

000006ad <checkers>:
 6ad:	55 2a 55 2a 55 2a 55 2a 55 2a ff                    U*U*U*U*U*.

000006b8 <ecg>:
 6b8:	10 10 10 10 10 08 10 10 0f 70 10 10 08 08 10 10     .........p......
 6c8:	10 10 10 10 ff                                      .....

000006cd <wink>:
 6cd:	00 26 20 26 00 00 26 20 26 00 00 26 20 26 00 00     .& &..& &..& &..
 6dd:	26 20 24 00 00 26 20 26 00 00 26 20 26 00 10 26     & $..& &..& &..&
 6ed:	20 26 10 ff                                          &..

000006f1 <tunnel>:
 6f1:	00 00 1c 00 00 00 3e 22 3e 00 7f 41 41 41 7f ff     ......>">..AAA..

00000701 <snow>:
 701:	01 00 00 00 00 02 00 01 00 00 04 00 02 00 00 08     ................
 711:	01 04 00 01 10 02 08 00 02 20 04 11 00 04 41 08     ......... ....A.
 721:	22 00 08 42 10 44 01 10 45 20 48 02 20 4a 40 50     "..B.D..E H. J@P
 731:	04 41 54 40 60 08 42 68 41 60 11 44 70 42 60 22     .AT@`.BhA`.DpB`"
 741:	48 70 44 60 45 50 70 48 60 4a 50 70 50 60 54 60     HpD`EPpH`JPpP`T`
 751:	70 60 60 68 60 70 60 60 70 60 ff                    p``h`p``p`.

0000075c <mountainrange>:
 75c:	08 44 28 10 08 04 02 04 08 50 30 10 08 04 04 02     .D(......P0.....
 76c:	01 ff                                               ..

0000076e <bounce>:
 76e:	01 00 00 00 00 02 02 01 00 00 06 09 09 06 00 00     ................
 77e:	30 48 48 30 00 20 50 50 20 00 30 48 48 30 00 00     0HH0. PP .0HH0..
 78e:	06 09 09 00 00 00 01 02 ff                          .........

00000797 <fire>:
 797:	78 5c 68 78 71 7c 38 74 7c 7a 78 50 62 62 78 7c     x\hxq|8t|zxPbbx|
 7a7:	60 61 70 68 7a 60 30 78 74 70 79 70 52 69 60 7c     `aphz`0xtpypRi`|
 7b7:	68 70 61 50 66 70 78 20 68 71 60 72 50 74 79 70     hpaPfpx hq`rPtyp
 7c7:	62 68 72 70 30 61 74 61 78 50 70 7a 74 31 40 68     bhrp0ataxPpzt1@h
 7d7:	44 10 68 70 34 60 28 4a 60 58 60 60 70 38 66 18     D.hp4`(J`X``p8f.
 7e7:	60 70 78 42 19 58 64 70 29 70 70 3a 78 54 70 70     `pxB.Xdp)pp:xTpp
 7f7:	51 78 6a 70 ff                                      Qxjp.

000007fc <arrow>:
 7fc:	14 2a 49 49 3e 00 1c 2a 49 3e 00 3e 49 3e 08 7f     .*II>..*I>.>I>..
 80c:	2a 1c 08 08 22 1c 08 08 08 1c 00 08 08 08 00 08     *..."...........
 81c:	08 08 08 08 08 08 08 00 08 08 08 00 00 08 08 00     ................
 82c:	00 00 08 00 00 00 00 00 00 00 00 0c 00 00 00 0c     ................
 83c:	12 00 00 0c 12 24 00 0c 12 24 12 0c 12 24 12 0c     .....$...$...$..
 84c:	ff                                                  .

0000084d <spd_conv>:
 84d:	32 1e 12 0b 07 05 03 02                             2.......

00000855 <dly_conv>:
 855:	00 01 02 03 05 08 0d 15 00                          .........

0000085e <__ctors_end>:
 85e:	11 24       	eor	r1, r1
 860:	1f be       	out	0x3f, r1	; 63
 862:	cf e5       	ldi	r28, 0x5F	; 95
 864:	d1 e0       	ldi	r29, 0x01	; 1
 866:	de bf       	out	0x3e, r29	; 62
 868:	cd bf       	out	0x3d, r28	; 61

0000086a <__do_copy_data>:
 86a:	10 e0       	ldi	r17, 0x00	; 0
 86c:	a0 e6       	ldi	r26, 0x60	; 96
 86e:	b0 e0       	ldi	r27, 0x00	; 0
 870:	e8 eb       	ldi	r30, 0xB8	; 184
 872:	ff e0       	ldi	r31, 0x0F	; 15
 874:	02 c0       	rjmp	.+4      	; 0x87a <__do_copy_data+0x10>
 876:	05 90       	lpm	r0, Z+
 878:	0d 92       	st	X+, r0
 87a:	a6 36       	cpi	r26, 0x66	; 102
 87c:	b1 07       	cpc	r27, r17
 87e:	d9 f7       	brne	.-10     	; 0x876 <__do_copy_data+0xc>

00000880 <__do_clear_bss>:
 880:	11 e0       	ldi	r17, 0x01	; 1
 882:	a6 e6       	ldi	r26, 0x66	; 102
 884:	b0 e0       	ldi	r27, 0x00	; 0
 886:	01 c0       	rjmp	.+2      	; 0x88a <.do_clear_bss_start>

00000888 <.do_clear_bss_loop>:
 888:	1d 92       	st	X+, r1

0000088a <.do_clear_bss_start>:
 88a:	a9 33       	cpi	r26, 0x39	; 57
 88c:	b1 07       	cpc	r27, r17
 88e:	e1 f7       	brne	.-8      	; 0x888 <.do_clear_bss_loop>
 890:	4f d3       	rcall	.+1694   	; 0xf30 <main>
 892:	90 c3       	rjmp	.+1824   	; 0xfb4 <_exit>

00000894 <__bad_interrupt>:
 894:	b5 cb       	rjmp	.-2198   	; 0x0 <__vectors>

00000896 <dmDisplay>:
	Output:			none
	Description:	Switch to the next display column and display it on the led matrix.
					Call this function periodically, e. g. within an interrupt routine.
======================================================================*/
void dmDisplay(void)
{
 896:	cf 93       	push	r28
 898:	df 93       	push	r29
 89a:	cd b7       	in	r28, 0x3d	; 61
 89c:	de b7       	in	r29, 0x3e	; 62
 89e:	c3 50       	subi	r28, 0x03	; 3
 8a0:	cd bf       	out	0x3d, r28	; 61
	display.curr_col++;
 8a2:	80 91 32 01 	lds	r24, 0x0132
 8a6:	8f 5f       	subi	r24, 0xFF	; 255
 8a8:	80 93 32 01 	sts	0x0132, r24
	if (display.curr_col >= DISP_COLUMNS) {
 8ac:	85 30       	cpi	r24, 0x05	; 5
 8ae:	10 f0       	brcs	.+4      	; 0x8b4 <dmDisplay+0x1e>
		display.curr_col = 0;
 8b0:	10 92 32 01 	sts	0x0132, r1
	}
	dmSetOutputs(display.curr_col, display.memory[display.base + display.curr_col]);
 8b4:	20 91 32 01 	lds	r18, 0x0132
 8b8:	e0 91 31 01 	lds	r30, 0x0131
 8bc:	f0 e0       	ldi	r31, 0x00	; 0
 8be:	e7 59       	subi	r30, 0x97	; 151
 8c0:	ff 4f       	sbci	r31, 0xFF	; 255
 8c2:	e2 0f       	add	r30, r18
 8c4:	f1 1d       	adc	r31, r1
 8c6:	30 81       	ld	r19, Z
inline void dmSetOutputs(uint8_t col, uint8_t pattern)
{
	uint8_t i;
	uint8_t p[3];

	p[0] = 0;  p[1] = 0;  p[2] = 0;
 8c8:	19 82       	std	Y+1, r1	; 0x01
 8ca:	1a 82       	std	Y+2, r1	; 0x02
 8cc:	1b 82       	std	Y+3, r1	; 0x03
 8ce:	80 e0       	ldi	r24, 0x00	; 0
 8d0:	90 e0       	ldi	r25, 0x00	; 0
	for (i = 0; i < DISP_ROWS; i++) {
		if (BIT_IS_ON) {
 8d2:	30 ff       	sbrs	r19, 0
 8d4:	11 c0       	rjmp	.+34     	; 0x8f8 <dmDisplay+0x62>
			p[ pgm_read_byte(&row_port[i]) ] |= pgm_read_byte(&row_bit[i]);		// set bit
 8d6:	fc 01       	movw	r30, r24
 8d8:	ef 5b       	subi	r30, 0xBF	; 191
 8da:	ff 4f       	sbci	r31, 0xFF	; 255
 8dc:	44 91       	lpm	r20, Z
 8de:	fc 01       	movw	r30, r24
 8e0:	e6 5c       	subi	r30, 0xC6	; 198
 8e2:	ff 4f       	sbci	r31, 0xFF	; 255
 8e4:	e4 91       	lpm	r30, Z
 8e6:	a1 e0       	ldi	r26, 0x01	; 1
 8e8:	b0 e0       	ldi	r27, 0x00	; 0
 8ea:	ac 0f       	add	r26, r28
 8ec:	bd 1f       	adc	r27, r29
 8ee:	a4 0f       	add	r26, r20
 8f0:	b1 1d       	adc	r27, r1
 8f2:	4c 91       	ld	r20, X
 8f4:	4e 2b       	or	r20, r30
 8f6:	4c 93       	st	X, r20
		}
		NEXT_BIT;
 8f8:	36 95       	lsr	r19
 8fa:	01 96       	adiw	r24, 0x01	; 1
{
	uint8_t i;
	uint8_t p[3];

	p[0] = 0;  p[1] = 0;  p[2] = 0;
	for (i = 0; i < DISP_ROWS; i++) {
 8fc:	87 30       	cpi	r24, 0x07	; 7
 8fe:	91 05       	cpc	r25, r1
 900:	41 f7       	brne	.-48     	; 0x8d2 <dmDisplay+0x3c>
 902:	80 e0       	ldi	r24, 0x00	; 0
 904:	90 e0       	ldi	r25, 0x00	; 0
			p[ pgm_read_byte(&row_port[i]) ] |= pgm_read_byte(&row_bit[i]);		// set bit
		}
		NEXT_BIT;
	}		
	for (i = 0; i < DISP_COLUMNS; i++) {
		if (i != COL) {					// note: COL is a macro
 906:	28 17       	cp	r18, r24
 908:	89 f0       	breq	.+34     	; 0x92c <dmDisplay+0x96>
			p[ pgm_read_byte(&col_port[i]) ] |= pgm_read_byte(&col_bit[i]);		// set bit
 90a:	fc 01       	movw	r30, r24
 90c:	e3 5b       	subi	r30, 0xB3	; 179
 90e:	ff 4f       	sbci	r31, 0xFF	; 255
 910:	34 91       	lpm	r19, Z
 912:	fc 01       	movw	r30, r24
 914:	e8 5b       	subi	r30, 0xB8	; 184
 916:	ff 4f       	sbci	r31, 0xFF	; 255
 918:	e4 91       	lpm	r30, Z
 91a:	a1 e0       	ldi	r26, 0x01	; 1
 91c:	b0 e0       	ldi	r27, 0x00	; 0
 91e:	ac 0f       	add	r26, r28
 920:	bd 1f       	adc	r27, r29
 922:	a3 0f       	add	r26, r19
 924:	b1 1d       	adc	r27, r1
 926:	3c 91       	ld	r19, X
 928:	3e 2b       	or	r19, r30
 92a:	3c 93       	st	X, r19
 92c:	01 96       	adiw	r24, 0x01	; 1
		if (BIT_IS_ON) {
			p[ pgm_read_byte(&row_port[i]) ] |= pgm_read_byte(&row_bit[i]);		// set bit
		}
		NEXT_BIT;
	}		
	for (i = 0; i < DISP_COLUMNS; i++) {
 92e:	85 30       	cpi	r24, 0x05	; 5
 930:	91 05       	cpc	r25, r1
 932:	49 f7       	brne	.-46     	; 0x906 <dmDisplay+0x70>
		if (i != COL) {					// note: COL is a macro
			p[ pgm_read_byte(&col_port[i]) ] |= pgm_read_byte(&col_bit[i]);		// set bit
		}
	}
	#if DISP_TYPE == 1					// if we use a display with common column anode
		p[0] ^= DISP_MASK_A;				// -> invert outputs
 934:	99 81       	ldd	r25, Y+1	; 0x01
 936:	83 e0       	ldi	r24, 0x03	; 3
 938:	98 27       	eor	r25, r24
		p[1] ^= DISP_MASK_B;
 93a:	8a 81       	ldd	r24, Y+2	; 0x02
 93c:	2e e7       	ldi	r18, 0x7E	; 126
 93e:	82 27       	eor	r24, r18
 940:	8a 83       	std	Y+2, r24	; 0x02
		p[2] ^= DISP_MASK_D;
 942:	8b 81       	ldd	r24, Y+3	; 0x03
 944:	2e e1       	ldi	r18, 0x1E	; 30
 946:	82 27       	eor	r24, r18
 948:	8b 83       	std	Y+3, r24	; 0x03
	#endif

	// set outputs
	i = PORTA & ~DISP_MASK_A;
 94a:	8b b3       	in	r24, 0x1b	; 27
 94c:	8c 7f       	andi	r24, 0xFC	; 252
	PORTA = i | p[0];
 94e:	89 2b       	or	r24, r25
 950:	8b bb       	out	0x1b, r24	; 27
	i = PORTB & ~DISP_MASK_B;
 952:	88 b3       	in	r24, 0x18	; 24
 954:	81 78       	andi	r24, 0x81	; 129
	PORTB = i | p[1];
 956:	9a 81       	ldd	r25, Y+2	; 0x02
 958:	89 2b       	or	r24, r25
 95a:	88 bb       	out	0x18, r24	; 24
	i = PORTD & ~DISP_MASK_D;
 95c:	82 b3       	in	r24, 0x12	; 18
 95e:	81 7e       	andi	r24, 0xE1	; 225
	PORTD = i | p[2];
 960:	9b 81       	ldd	r25, Y+3	; 0x03
 962:	89 2b       	or	r24, r25
 964:	82 bb       	out	0x12, r24	; 18
	display.curr_col++;
	if (display.curr_col >= DISP_COLUMNS) {
		display.curr_col = 0;
	}
	dmSetOutputs(display.curr_col, display.memory[display.base + display.curr_col]);
}
 966:	cd 5f       	subi	r28, 0xFD	; 253
 968:	cd bf       	out	0x3d, r28	; 61
 96a:	df 91       	pop	r29
 96c:	cf 91       	pop	r28
 96e:	08 95       	ret

00000970 <dmScroll>:
======================================================================*/
uint8_t dmScroll(void)
{
	uint8_t temp, mode;

	mode = display.scroll_mode;
 970:	f0 91 33 01 	lds	r31, 0x0133
	temp = mode & 0x0F;										// extract increment
 974:	8f 2f       	mov	r24, r31
 976:	8f 70       	andi	r24, 0x0F	; 15
	if (mode & 0x10)	{ temp = display.base - temp; }		// scrolling backward
 978:	4f 2f       	mov	r20, r31
 97a:	50 e0       	ldi	r21, 0x00	; 0
 97c:	ba 01       	movw	r22, r20
 97e:	60 71       	andi	r22, 0x10	; 16
 980:	70 70       	andi	r23, 0x00	; 0
 982:	e0 91 31 01 	lds	r30, 0x0131
 986:	f4 ff       	sbrs	r31, 4
 988:	02 c0       	rjmp	.+4      	; 0x98e <dmScroll+0x1e>
 98a:	e8 1b       	sub	r30, r24
 98c:	01 c0       	rjmp	.+2      	; 0x990 <dmScroll+0x20>
															// We use a dirty trick here:
															// Temp may underflow at left end of display memory.
	else				{ temp = display.base + temp; }		// scrolling forward
 98e:	e8 0f       	add	r30, r24

	if ((temp + DISP_COLUMNS) > display.cursor ) {			// end of scrolling range reached?
 990:	a0 91 34 01 	lds	r26, 0x0134
 994:	8e 2f       	mov	r24, r30
 996:	90 e0       	ldi	r25, 0x00	; 0
 998:	04 96       	adiw	r24, 0x04	; 4
 99a:	2a 2f       	mov	r18, r26
 99c:	30 e0       	ldi	r19, 0x00	; 0
 99e:	82 17       	cp	r24, r18
 9a0:	93 07       	cpc	r25, r19
 9a2:	f4 f0       	brlt	.+60     	; 0x9e0 <dmScroll+0x70>
															// Note: As temp is allowed to underflow, this is 
															// true at both ends of the display memory.
		if (display.delay_counter) {
 9a4:	80 91 36 01 	lds	r24, 0x0136
 9a8:	88 23       	and	r24, r24
 9aa:	21 f0       	breq	.+8      	; 0x9b4 <dmScroll+0x44>
			display.delay_counter--;
 9ac:	81 50       	subi	r24, 0x01	; 1
 9ae:	80 93 36 01 	sts	0x0136, r24
 9b2:	14 c0       	rjmp	.+40     	; 0x9dc <dmScroll+0x6c>
		}
		else {
			display.delay_counter = display.scroll_delay;					// reload delay counter
 9b4:	80 91 35 01 	lds	r24, 0x0135
 9b8:	80 93 36 01 	sts	0x0136, r24
			if (mode & 0x20)		{ display.scroll_mode = mode ^ 0x10; }	// reverse direction
 9bc:	45 ff       	sbrs	r20, 5
 9be:	05 c0       	rjmp	.+10     	; 0x9ca <dmScroll+0x5a>
 9c0:	80 e1       	ldi	r24, 0x10	; 16
 9c2:	8f 27       	eor	r24, r31
 9c4:	80 93 33 01 	sts	0x0133, r24
 9c8:	09 c0       	rjmp	.+18     	; 0x9dc <dmScroll+0x6c>
			else if (mode &0x10)	{ display.base = display.cursor - DISP_COLUMNS; }	// restart from right end
 9ca:	61 15       	cp	r22, r1
 9cc:	71 05       	cpc	r23, r1
 9ce:	21 f0       	breq	.+8      	; 0x9d8 <dmScroll+0x68>
 9d0:	a5 50       	subi	r26, 0x05	; 5
 9d2:	a0 93 31 01 	sts	0x0131, r26
 9d6:	02 c0       	rjmp	.+4      	; 0x9dc <dmScroll+0x6c>
			else					{ display.base = 0; }					// restart from left end
 9d8:	10 92 31 01 	sts	0x0131, r1
		}
		return (1);
 9dc:	81 e0       	ldi	r24, 0x01	; 1
 9de:	08 95       	ret
	}
	else {
		display.base = temp;
 9e0:	e0 93 31 01 	sts	0x0131, r30
		return (0);
 9e4:	80 e0       	ldi	r24, 0x00	; 0
	}
}
 9e6:	08 95       	ret

000009e8 <dmSetScrolling>:
	Description:	Set scrolling increment and direction.
					Delay sets number of scrolling steps to wait at end of scrolling range.
======================================================================*/
void dmSetScrolling(uint8_t inc, uint8_t dir, uint8_t delay)
{
	inc &= 0x0F;		// limit range
 9e8:	8f 70       	andi	r24, 0x0F	; 15
	dir &= 0x03;		// limit range
 9ea:	63 70       	andi	r22, 0x03	; 3
	if (dir != BACKWARD)	{ display.delay_counter = delay; }
 9ec:	61 30       	cpi	r22, 0x01	; 1
 9ee:	19 f0       	breq	.+6      	; 0x9f6 <dmSetScrolling+0xe>
 9f0:	40 93 36 01 	sts	0x0136, r20
 9f4:	02 c0       	rjmp	.+4      	; 0x9fa <dmSetScrolling+0x12>
	else					{ display.delay_counter = 0; }
 9f6:	10 92 36 01 	sts	0x0136, r1
	swap(dir);
 9fa:	62 95       	swap	r22
	display.scroll_mode   = inc | dir;
 9fc:	68 2b       	or	r22, r24
 9fe:	60 93 33 01 	sts	0x0133, r22
	display.scroll_delay  = delay;
 a02:	40 93 35 01 	sts	0x0135, r20
}
 a06:	08 95       	ret

00000a08 <dmClearDisplay>:
======================================================================*/
void dmClearDisplay(void)
{
	uint8_t i;

	display.base  = 0;
 a08:	10 92 31 01 	sts	0x0131, r1
	display.cursor = 0;
 a0c:	10 92 34 01 	sts	0x0134, r1
	for (i = 0; i < DISP_COLUMNS; i++) {
		display.memory[i] = 0;
 a10:	10 92 69 00 	sts	0x0069, r1
 a14:	10 92 6a 00 	sts	0x006A, r1
 a18:	10 92 6b 00 	sts	0x006B, r1
 a1c:	10 92 6c 00 	sts	0x006C, r1
 a20:	10 92 6d 00 	sts	0x006D, r1
	}
}
 a24:	08 95       	ret

00000a26 <dmInit>:
	Output:			none
	Description:	Initialize the hardware.
======================================================================*/
void dmInit(void)
{
	dmClearDisplay();
 a26:	f0 df       	rcall	.-32     	; 0xa08 <dmClearDisplay>
	display.scroll_mode = 0;
 a28:	10 92 33 01 	sts	0x0133, r1
	display.scroll_delay = 0;
 a2c:	10 92 35 01 	sts	0x0135, r1
}
 a30:	08 95       	ret

00000a32 <dmDisplayImage>:
======================================================================*/
void dmDisplayImage(const uint8_t* image)
{
	uint8_t img_data, pos;

	pos = display.cursor;
 a32:	20 91 34 01 	lds	r18, 0x0134
	while(pos < DISP_MAX) {
 a36:	0b c0       	rjmp	.+22     	; 0xa4e <dmDisplayImage+0x1c>
		img_data = pgm_read_byte(image++);	// read byte from flash
 a38:	fc 01       	movw	r30, r24
 a3a:	34 91       	lpm	r19, Z
		if (img_data == 0xFF) { break; }	// stop if end-of-data has been reached
 a3c:	3f 3f       	cpi	r19, 0xFF	; 255
 a3e:	49 f0       	breq	.+18     	; 0xa52 <dmDisplayImage+0x20>
{
	uint8_t img_data, pos;

	pos = display.cursor;
	while(pos < DISP_MAX) {
		img_data = pgm_read_byte(image++);	// read byte from flash
 a40:	01 96       	adiw	r24, 0x01	; 1
		if (img_data == 0xFF) { break; }	// stop if end-of-data has been reached
		display.memory[pos] = img_data;
 a42:	e2 2f       	mov	r30, r18
 a44:	f0 e0       	ldi	r31, 0x00	; 0
 a46:	e7 59       	subi	r30, 0x97	; 151
 a48:	ff 4f       	sbci	r31, 0xFF	; 255
 a4a:	30 83       	st	Z, r19
		pos++;
 a4c:	2f 5f       	subi	r18, 0xFF	; 255
void dmDisplayImage(const uint8_t* image)
{
	uint8_t img_data, pos;

	pos = display.cursor;
	while(pos < DISP_MAX) {
 a4e:	28 3c       	cpi	r18, 0xC8	; 200
 a50:	98 f3       	brcs	.-26     	; 0xa38 <dmDisplayImage+0x6>
		img_data = pgm_read_byte(image++);	// read byte from flash
		if (img_data == 0xFF) { break; }	// stop if end-of-data has been reached
		display.memory[pos] = img_data;
		pos++;
	}
	display.cursor = pos;
 a52:	20 93 34 01 	sts	0x0134, r18
}
 a56:	08 95       	ret

00000a58 <dmPrintByte>:
======================================================================*/
void dmPrintByte(uint8_t byt)
{
	uint8_t pos;

	pos = display.cursor;
 a58:	90 91 34 01 	lds	r25, 0x0134
	if (pos < DISP_MAX) { 
 a5c:	98 3c       	cpi	r25, 0xC8	; 200
 a5e:	40 f4       	brcc	.+16     	; 0xa70 <dmPrintByte+0x18>
		display.memory[pos] = byt;
 a60:	e9 2f       	mov	r30, r25
 a62:	f0 e0       	ldi	r31, 0x00	; 0
 a64:	e7 59       	subi	r30, 0x97	; 151
 a66:	ff 4f       	sbci	r31, 0xFF	; 255
 a68:	80 83       	st	Z, r24
		pos++;
 a6a:	9f 5f       	subi	r25, 0xFF	; 255
		display.cursor = pos;
 a6c:	90 93 34 01 	sts	0x0134, r25
 a70:	08 95       	ret

00000a72 <dmPrintChar>:
{
	uint8_t  i, pos, char_data;
	uint16_t fnt;			// pointer into character font

	// mapping of german special characters
	if (ch == 223) { ch = 138; }		// 'ß'
 a72:	8f 3d       	cpi	r24, 0xDF	; 223
 a74:	49 f0       	breq	.+18     	; 0xa88 <dmPrintChar+0x16>
	if (ch == 196) { ch = 133; }		// 'Ä'
 a76:	84 3c       	cpi	r24, 0xC4	; 196
 a78:	61 f0       	breq	.+24     	; 0xa92 <dmPrintChar+0x20>
	if (ch == 214) { ch = 135; }		// 'Ö'
 a7a:	86 3d       	cpi	r24, 0xD6	; 214
 a7c:	79 f0       	breq	.+30     	; 0xa9c <dmPrintChar+0x2a>
	if (ch == 220) { ch = 137; }		// 'Ü'
 a7e:	8c 3d       	cpi	r24, 0xDC	; 220
 a80:	79 f0       	breq	.+30     	; 0xaa0 <dmPrintChar+0x2e>
	if (ch == 228) { ch = 132; }		// 'ä'
 a82:	84 3e       	cpi	r24, 0xE4	; 228
 a84:	79 f0       	breq	.+30     	; 0xaa4 <dmPrintChar+0x32>
 a86:	02 c0       	rjmp	.+4      	; 0xa8c <dmPrintChar+0x1a>
{
	uint8_t  i, pos, char_data;
	uint16_t fnt;			// pointer into character font

	// mapping of german special characters
	if (ch == 223) { ch = 138; }		// 'ß'
 a88:	8a e8       	ldi	r24, 0x8A	; 138
 a8a:	11 c0       	rjmp	.+34     	; 0xaae <dmPrintChar+0x3c>
	if (ch == 196) { ch = 133; }		// 'Ä'
	if (ch == 214) { ch = 135; }		// 'Ö'
	if (ch == 220) { ch = 137; }		// 'Ü'
	if (ch == 228) { ch = 132; }		// 'ä'
	if (ch == 246) { ch = 134; }		// 'ö'
 a8c:	86 3f       	cpi	r24, 0xF6	; 246
 a8e:	61 f0       	breq	.+24     	; 0xaa8 <dmPrintChar+0x36>
 a90:	02 c0       	rjmp	.+4      	; 0xa96 <dmPrintChar+0x24>
	uint8_t  i, pos, char_data;
	uint16_t fnt;			// pointer into character font

	// mapping of german special characters
	if (ch == 223) { ch = 138; }		// 'ß'
	if (ch == 196) { ch = 133; }		// 'Ä'
 a92:	85 e8       	ldi	r24, 0x85	; 133
 a94:	0c c0       	rjmp	.+24     	; 0xaae <dmPrintChar+0x3c>
	if (ch == 214) { ch = 135; }		// 'Ö'
	if (ch == 220) { ch = 137; }		// 'Ü'
	if (ch == 228) { ch = 132; }		// 'ä'
	if (ch == 246) { ch = 134; }		// 'ö'
	if (ch == 252) { ch = 136; }		// 'ü'
 a96:	8c 3f       	cpi	r24, 0xFC	; 252
 a98:	49 f0       	breq	.+18     	; 0xaac <dmPrintChar+0x3a>
 a9a:	09 c0       	rjmp	.+18     	; 0xaae <dmPrintChar+0x3c>
	uint16_t fnt;			// pointer into character font

	// mapping of german special characters
	if (ch == 223) { ch = 138; }		// 'ß'
	if (ch == 196) { ch = 133; }		// 'Ä'
	if (ch == 214) { ch = 135; }		// 'Ö'
 a9c:	87 e8       	ldi	r24, 0x87	; 135
 a9e:	07 c0       	rjmp	.+14     	; 0xaae <dmPrintChar+0x3c>
	if (ch == 220) { ch = 137; }		// 'Ü'
 aa0:	89 e8       	ldi	r24, 0x89	; 137
 aa2:	05 c0       	rjmp	.+10     	; 0xaae <dmPrintChar+0x3c>
	if (ch == 228) { ch = 132; }		// 'ä'
 aa4:	84 e8       	ldi	r24, 0x84	; 132
 aa6:	03 c0       	rjmp	.+6      	; 0xaae <dmPrintChar+0x3c>
	if (ch == 246) { ch = 134; }		// 'ö'
 aa8:	86 e8       	ldi	r24, 0x86	; 134
 aaa:	01 c0       	rjmp	.+2      	; 0xaae <dmPrintChar+0x3c>
	if (ch == 252) { ch = 136; }		// 'ü'
 aac:	88 e8       	ldi	r24, 0x88	; 136
	ch -= 32;
 aae:	80 52       	subi	r24, 0x20	; 32
	if (ch > (sizeof(font)/CHAR_WIDTH)) { return; }
 ab0:	81 39       	cpi	r24, 0x91	; 145
 ab2:	10 f5       	brcc	.+68     	; 0xaf8 <dmPrintChar+0x86>
		
	fnt = ch;
 ab4:	e8 2f       	mov	r30, r24
 ab6:	f0 e0       	ldi	r31, 0x00	; 0
	fnt = (fnt << 2) + fnt + (uint16_t) &font[0];		// fnt = &font + 5 * ch
 ab8:	cf 01       	movw	r24, r30
 aba:	88 0f       	add	r24, r24
 abc:	99 1f       	adc	r25, r25
 abe:	88 0f       	add	r24, r24
 ac0:	99 1f       	adc	r25, r25
 ac2:	ee 5a       	subi	r30, 0xAE	; 174
 ac4:	ff 4f       	sbci	r31, 0xFF	; 255
 ac6:	e8 0f       	add	r30, r24
 ac8:	f9 1f       	adc	r31, r25
	
	pos = display.cursor;
 aca:	80 91 34 01 	lds	r24, 0x0134
 ace:	95 e0       	ldi	r25, 0x05	; 5
 ad0:	01 c0       	rjmp	.+2      	; 0xad4 <dmPrintChar+0x62>
	for (i = 0; i < CHAR_WIDTH; i++) {
		char_data = pgm_read_byte(fnt++);	// read byte from font
 ad2:	f9 01       	movw	r30, r18
 ad4:	9f 01       	movw	r18, r30
 ad6:	2f 5f       	subi	r18, 0xFF	; 255
 ad8:	3f 4f       	sbci	r19, 0xFF	; 255
 ada:	e4 91       	lpm	r30, Z
		if (char_data & 0x80) { break; }	// stop if MSB is set (proportional character width)
 adc:	e7 fd       	sbrc	r30, 7
 ade:	0a c0       	rjmp	.+20     	; 0xaf4 <dmPrintChar+0x82>
		if (pos < DISP_MAX) {
 ae0:	88 3c       	cpi	r24, 0xC8	; 200
 ae2:	30 f4       	brcc	.+12     	; 0xaf0 <dmPrintChar+0x7e>
			display.memory[pos] = char_data;
 ae4:	a8 2f       	mov	r26, r24
 ae6:	b0 e0       	ldi	r27, 0x00	; 0
 ae8:	a7 59       	subi	r26, 0x97	; 151
 aea:	bf 4f       	sbci	r27, 0xFF	; 255
 aec:	ec 93       	st	X, r30
			pos++;
 aee:	8f 5f       	subi	r24, 0xFF	; 255
 af0:	91 50       	subi	r25, 0x01	; 1
		
	fnt = ch;
	fnt = (fnt << 2) + fnt + (uint16_t) &font[0];		// fnt = &font + 5 * ch
	
	pos = display.cursor;
	for (i = 0; i < CHAR_WIDTH; i++) {
 af2:	79 f7       	brne	.-34     	; 0xad2 <dmPrintChar+0x60>
		if (pos < DISP_MAX) {
			display.memory[pos] = char_data;
			pos++;
		}		
	}
	display.cursor = pos;
 af4:	80 93 34 01 	sts	0x0134, r24
 af8:	08 95       	ret

00000afa <InitHardware>:
	Description:	.
======================================================================*/
void InitHardware(void)
{
	// switch all pins that are connected to the dot matrix to output
	DDRA = DISP_MASK_A;
 afa:	83 e0       	ldi	r24, 0x03	; 3
 afc:	8a bb       	out	0x1a, r24	; 26
	DDRB = DISP_MASK_B;
 afe:	8e e7       	ldi	r24, 0x7E	; 126
 b00:	87 bb       	out	0x17, r24	; 23
	DDRD = DISP_MASK_D;
 b02:	8e e1       	ldi	r24, 0x1E	; 30
 b04:	81 bb       	out	0x11, r24	; 17
	
	// enable pull-ups on all input pins to avoid floating inputs
	PORTA |= ~DISP_MASK_A;
 b06:	8b b3       	in	r24, 0x1b	; 27
 b08:	8c 6f       	ori	r24, 0xFC	; 252
 b0a:	8b bb       	out	0x1b, r24	; 27
	PORTB |= ~DISP_MASK_B;
 b0c:	88 b3       	in	r24, 0x18	; 24
 b0e:	81 68       	ori	r24, 0x81	; 129
 b10:	88 bb       	out	0x18, r24	; 24
	PORTD |= ~DISP_MASK_D;
 b12:	82 b3       	in	r24, 0x12	; 18
 b14:	81 6e       	ori	r24, 0xE1	; 225
 b16:	82 bb       	out	0x12, r24	; 18
	
	// timer 0
	TCCR0A = (0<<WGM00);				// timer mode = normal
 b18:	10 be       	out	0x30, r1	; 48
	TCCR0B = (5<<CS00);					// prescaler = 1:1024
 b1a:	85 e0       	ldi	r24, 0x05	; 5
 b1c:	83 bf       	out	0x33, r24	; 51
	OCR0A = OCR0A_CYCLE_TIME;
 b1e:	84 e0       	ldi	r24, 0x04	; 4
 b20:	86 bf       	out	0x36, r24	; 54
	OCR0B = OCR0B_CYCLE_TIME;
 b22:	87 e2       	ldi	r24, 0x27	; 39
 b24:	8c bf       	out	0x3c, r24	; 60
	TIMSK |= (1<<OCIE0B)|(1<<OCIE0A);
 b26:	89 b7       	in	r24, 0x39	; 57
 b28:	85 60       	ori	r24, 0x05	; 5
 b2a:	89 bf       	out	0x39, r24	; 57
	
	// serial interface
	// Note: Speed of the serial interface must not be higher than 2400 Baud.
	// This leaves enough time for the EEPROM write operation to complete before 
	// the next byte arrives.
	UBRRL = (uint8_t) (103.5 * SER_CLK_CORRECTION);	// 2400 baud, corrected value
 b2c:	87 e6       	ldi	r24, 0x67	; 103
 b2e:	89 b9       	out	0x09, r24	; 9
//	UBRRL = 103;						// 2400 baud, ideal value
//	UBRRL = 207;						// 1200 baud, ideal value
	UBRRH = 0;
 b30:	12 b8       	out	0x02, r1	; 2
	UCSRB = (1<<RXCIE)|(1<<RXEN);		// enable receiver, enable RX interrupt
 b32:	80 e9       	ldi	r24, 0x90	; 144
 b34:	8a b9       	out	0x0a, r24	; 10
	UCSRC = (3<<UCSZ0);					// async USART, 8 data bits, no parity, 1 stop bit
 b36:	86 e0       	ldi	r24, 0x06	; 6
 b38:	83 b9       	out	0x03, r24	; 3
}
 b3a:	08 95       	ret

00000b3c <SetMode>:
					Bit 6..4:	delay between scrolling repetitions (0 = shortest, 7 = longest)
					Bit 3:		scrolling increment (cleared = +1 (for texts), set = +5 (for animations))
					Bit 2..0:	scrolling speed (1 = slowest, 7 = fastest)
======================================================================*/
void SetMode(uint8_t mode)
{
 b3c:	cf 93       	push	r28
 b3e:	c8 2f       	mov	r28, r24
	uint8_t inc, dir, dly, spd;

	if (mode & 0x08)	{ inc = 5; }
 b40:	83 ff       	sbrs	r24, 3
 b42:	02 c0       	rjmp	.+4      	; 0xb48 <SetMode+0xc>
 b44:	85 e0       	ldi	r24, 0x05	; 5
 b46:	01 c0       	rjmp	.+2      	; 0xb4a <SetMode+0xe>
		else			{ inc = 1; }
 b48:	81 e0       	ldi	r24, 0x01	; 1
	if (mode & 0x80)	{ dir = BIDIRECTIONAL; }
 b4a:	6c 2f       	mov	r22, r28
 b4c:	66 1f       	adc	r22, r22
 b4e:	66 27       	eor	r22, r22
 b50:	66 1f       	adc	r22, r22
 b52:	66 0f       	add	r22, r22
		else			{ dir = FORWARD; }
	spd = mode & 0x07;
	dly = swap(mode) & 0x07;
 b54:	ec 2f       	mov	r30, r28
 b56:	e2 95       	swap	r30
 b58:	e7 70       	andi	r30, 0x07	; 7
	dmSetScrolling(inc, dir, pgm_read_byte(&dly_conv[dly]));
 b5a:	f0 e0       	ldi	r31, 0x00	; 0
 b5c:	eb 5a       	subi	r30, 0xAB	; 171
 b5e:	f7 4f       	sbci	r31, 0xF7	; 247
 b60:	44 91       	lpm	r20, Z
 b62:	42 df       	rcall	.-380    	; 0x9e8 <dmSetScrolling>

	if (mode & 0x08)	{ inc = 5; }
		else			{ inc = 1; }
	if (mode & 0x80)	{ dir = BIDIRECTIONAL; }
		else			{ dir = FORWARD; }
	spd = mode & 0x07;
 b64:	c7 70       	andi	r28, 0x07	; 7
	dly = swap(mode) & 0x07;
	dmSetScrolling(inc, dir, pgm_read_byte(&dly_conv[dly]));
	scroll_speed = pgm_read_byte(&spd_conv[spd]);
 b66:	ec 2f       	mov	r30, r28
 b68:	f0 e0       	ldi	r31, 0x00	; 0
 b6a:	e3 5b       	subi	r30, 0xB3	; 179
 b6c:	f7 4f       	sbci	r31, 0xF7	; 247
 b6e:	e4 91       	lpm	r30, Z
 b70:	e0 93 63 00 	sts	0x0063, r30
}		
 b74:	cf 91       	pop	r28
 b76:	08 95       	ret

00000b78 <DisplayMessage>:
					the following bytes are directly written to the display 
					memory without being decoded using the character font.
					Direct mode is ended by 0xFF.
======================================================================*/
uint8_t* DisplayMessage(uint8_t* ee_adr)
{
 b78:	ef 92       	push	r14
 b7a:	ff 92       	push	r15
 b7c:	0f 93       	push	r16
 b7e:	1f 93       	push	r17
 b80:	cf 93       	push	r28
 b82:	df 93       	push	r29
 b84:	0f 92       	push	r0
 b86:	cd b7       	in	r28, 0x3d	; 61
 b88:	de b7       	in	r29, 0x3e	; 62
 b8a:	7c 01       	movw	r14, r24
	uint8_t ch;

	SetMode(eeprom_read_byte(ee_adr));
 b8c:	fd d1       	rcall	.+1018   	; 0xf88 <__eerd_byte_tn4313>
 b8e:	d6 df       	rcall	.-84     	; 0xb3c <SetMode>
	ee_adr++;
	dmClearDisplay();
 b90:	3b df       	rcall	.-394    	; 0xa08 <dmClearDisplay>

	ch = eeprom_read_byte(ee_adr++);
 b92:	87 01       	movw	r16, r14
 b94:	0e 5f       	subi	r16, 0xFE	; 254
 b96:	1f 4f       	sbci	r17, 0xFF	; 255
 b98:	c7 01       	movw	r24, r14
 b9a:	01 96       	adiw	r24, 0x01	; 1
 b9c:	f5 d1       	rcall	.+1002   	; 0xf88 <__eerd_byte_tn4313>
 b9e:	98 2f       	mov	r25, r24
	while (ch) {
 ba0:	42 c0       	rjmp	.+132    	; 0xc26 <DisplayMessage+0xae>
		if (ch == '~') {					// animation
			ch = eeprom_read_byte(ee_adr++);
 ba2:	78 01       	movw	r14, r16
	ee_adr++;
	dmClearDisplay();

	ch = eeprom_read_byte(ee_adr++);
	while (ch) {
		if (ch == '~') {					// animation
 ba4:	9e 37       	cpi	r25, 0x7E	; 126
 ba6:	a1 f4       	brne	.+40     	; 0xbd0 <DisplayMessage+0x58>
			ch = eeprom_read_byte(ee_adr++);
 ba8:	08 94       	sec
 baa:	e1 1c       	adc	r14, r1
 bac:	f1 1c       	adc	r15, r1
 bae:	c8 01       	movw	r24, r16
 bb0:	eb d1       	rcall	.+982    	; 0xf88 <__eerd_byte_tn4313>
			if (ch != '~') {
 bb2:	8e 37       	cpi	r24, 0x7E	; 126
 bb4:	61 f1       	breq	.+88     	; 0xc0e <DisplayMessage+0x96>
				ch -= 'A';
 bb6:	e8 2f       	mov	r30, r24
 bb8:	e1 54       	subi	r30, 0x41	; 65
				if (ch < ANIMATION_COUNT) {
 bba:	e6 31       	cpi	r30, 0x16	; 22
 bbc:	40 f5       	brcc	.+80     	; 0xc0e <DisplayMessage+0x96>
					dmDisplayImage((const uint8_t*)pgm_read_word(&animation[ch]));
 bbe:	f0 e0       	ldi	r31, 0x00	; 0
 bc0:	ee 0f       	add	r30, r30
 bc2:	ff 1f       	adc	r31, r31
 bc4:	ee 5d       	subi	r30, 0xDE	; 222
 bc6:	fc 4f       	sbci	r31, 0xFC	; 252
 bc8:	85 91       	lpm	r24, Z+
 bca:	94 91       	lpm	r25, Z
 bcc:	32 df       	rcall	.-412    	; 0xa32 <dmDisplayImage>
 bce:	1f c0       	rjmp	.+62     	; 0xc0e <DisplayMessage+0x96>
				}				
			}
		}
		else if (ch == 0xFF) {				// direct mode
 bd0:	9f 3f       	cpi	r25, 0xFF	; 255
 bd2:	81 f4       	brne	.+32     	; 0xbf4 <DisplayMessage+0x7c>
			ch = eeprom_read_byte(ee_adr++);
 bd4:	08 94       	sec
 bd6:	e1 1c       	adc	r14, r1
 bd8:	f1 1c       	adc	r15, r1
 bda:	c8 01       	movw	r24, r16
 bdc:	d5 d1       	rcall	.+938    	; 0xf88 <__eerd_byte_tn4313>
			while (ch != 0xFF) {
 bde:	07 c0       	rjmp	.+14     	; 0xbee <DisplayMessage+0x76>
				dmPrintByte(ch);
 be0:	3b df       	rcall	.-394    	; 0xa58 <dmPrintByte>
				ch = eeprom_read_byte(ee_adr++);
 be2:	87 01       	movw	r16, r14
 be4:	0f 5f       	subi	r16, 0xFF	; 255
 be6:	1f 4f       	sbci	r17, 0xFF	; 255
 be8:	c7 01       	movw	r24, r14
 bea:	ce d1       	rcall	.+924    	; 0xf88 <__eerd_byte_tn4313>
 bec:	78 01       	movw	r14, r16
				}				
			}
		}
		else if (ch == 0xFF) {				// direct mode
			ch = eeprom_read_byte(ee_adr++);
			while (ch != 0xFF) {
 bee:	8f 3f       	cpi	r24, 0xFF	; 255
 bf0:	b9 f7       	brne	.-18     	; 0xbe0 <DisplayMessage+0x68>
 bf2:	0d c0       	rjmp	.+26     	; 0xc0e <DisplayMessage+0x96>
				dmPrintByte(ch);
				ch = eeprom_read_byte(ee_adr++);
			}
		}
		else {								// character
			if (ch == '^') {				// special character
 bf4:	9e 35       	cpi	r25, 0x5E	; 94
 bf6:	49 f4       	brne	.+18     	; 0xc0a <DisplayMessage+0x92>
				ch = eeprom_read_byte(ee_adr++);
 bf8:	08 94       	sec
 bfa:	e1 1c       	adc	r14, r1
 bfc:	f1 1c       	adc	r15, r1
 bfe:	c8 01       	movw	r24, r16
 c00:	c3 d1       	rcall	.+902    	; 0xf88 <__eerd_byte_tn4313>
 c02:	98 2f       	mov	r25, r24
				if (ch != '^') {
 c04:	8e 35       	cpi	r24, 0x5E	; 94
 c06:	09 f0       	breq	.+2      	; 0xc0a <DisplayMessage+0x92>
					ch += 63;
 c08:	91 5c       	subi	r25, 0xC1	; 193
				}
			}
			dmPrintChar(ch);
 c0a:	89 2f       	mov	r24, r25
 c0c:	32 df       	rcall	.-412    	; 0xa72 <dmPrintChar>
		}
		ch = eeprom_read_byte(ee_adr++);
 c0e:	87 01       	movw	r16, r14
 c10:	0f 5f       	subi	r16, 0xFF	; 255
 c12:	1f 4f       	sbci	r17, 0xFF	; 255
 c14:	c7 01       	movw	r24, r14
 c16:	b8 d1       	rcall	.+880    	; 0xf88 <__eerd_byte_tn4313>
 c18:	98 2f       	mov	r25, r24
		if (ch) { dmPrintByte(0); }			// print a narrow space except for the last character					
 c1a:	88 23       	and	r24, r24
 c1c:	21 f0       	breq	.+8      	; 0xc26 <DisplayMessage+0xae>
 c1e:	80 e0       	ldi	r24, 0x00	; 0
 c20:	99 83       	std	Y+1, r25	; 0x01
 c22:	1a df       	rcall	.-460    	; 0xa58 <dmPrintByte>
 c24:	99 81       	ldd	r25, Y+1	; 0x01
	SetMode(eeprom_read_byte(ee_adr));
	ee_adr++;
	dmClearDisplay();

	ch = eeprom_read_byte(ee_adr++);
	while (ch) {
 c26:	99 23       	and	r25, r25
 c28:	09 f0       	breq	.+2      	; 0xc2c <DisplayMessage+0xb4>
 c2a:	bb cf       	rjmp	.-138    	; 0xba2 <DisplayMessage+0x2a>
			dmPrintChar(ch);
		}
		ch = eeprom_read_byte(ee_adr++);
		if (ch) { dmPrintByte(0); }			// print a narrow space except for the last character					
	}
	ch = eeprom_read_byte(ee_adr);			// read mode byte of next message
 c2c:	c8 01       	movw	r24, r16
 c2e:	ac d1       	rcall	.+856    	; 0xf88 <__eerd_byte_tn4313>
	if (ch)		{ return(ee_adr); }
 c30:	88 23       	and	r24, r24
 c32:	11 f4       	brne	.+4      	; 0xc38 <DisplayMessage+0xc0>
		else	{ return((uint8_t*) messages); }	// restart all-over if mode byte is 0
 c34:	00 e0       	ldi	r16, 0x00	; 0
 c36:	10 e0       	ldi	r17, 0x00	; 0
}
 c38:	c8 01       	movw	r24, r16
 c3a:	0f 90       	pop	r0
 c3c:	df 91       	pop	r29
 c3e:	cf 91       	pop	r28
 c40:	1f 91       	pop	r17
 c42:	0f 91       	pop	r16
 c44:	ff 90       	pop	r15
 c46:	ef 90       	pop	r14
 c48:	08 95       	ret

00000c4a <GoToSleep>:
	Description:	Put the controller into sleep mode and prepare for
					wake-up by a pin change interrupt.
======================================================================*/
void GoToSleep(void)
{
	dmClearDisplay();
 c4a:	de de       	rcall	.-580    	; 0xa08 <dmClearDisplay>
	#else
		//round up by default
		__ticks_dc = (uint32_t)(ceil(fabs(__tmp)));
	#endif

	__builtin_avr_delay_cycles(__ticks_dc);
 c4c:	8f ef       	ldi	r24, 0xFF	; 255
 c4e:	94 e3       	ldi	r25, 0x34	; 52
 c50:	ac e0       	ldi	r26, 0x0C	; 12
 c52:	81 50       	subi	r24, 0x01	; 1
 c54:	90 40       	sbci	r25, 0x00	; 0
 c56:	a0 40       	sbci	r26, 0x00	; 0
 c58:	e1 f7       	brne	.-8      	; 0xc52 <GoToSleep+0x8>
 c5a:	00 c0       	rjmp	.+0      	; 0xc5c <GoToSleep+0x12>
 c5c:	00 00       	nop
	_delay_ms(1000);
	GIFR = (1<<PCIF2);				// clear interrupt flag
 c5e:	80 e1       	ldi	r24, 0x10	; 16
 c60:	8a bf       	out	0x3a, r24	; 58
	PCMSK2 = (1<<PCINT17);			// enable pin change interrupt
 c62:	90 e4       	ldi	r25, 0x40	; 64
 c64:	95 b9       	out	0x05, r25	; 5
	GIMSK = (1<<PCIE2);				// enable pin change interrupt
 c66:	8b bf       	out	0x3b, r24	; 59
	set_sleep_mode(SLEEP_MODE_PWR_DOWN);
 c68:	85 b7       	in	r24, 0x35	; 53
 c6a:	80 65       	ori	r24, 0x50	; 80
 c6c:	85 bf       	out	0x35, r24	; 53
	sleep_mode();
 c6e:	85 b7       	in	r24, 0x35	; 53
 c70:	80 62       	ori	r24, 0x20	; 32
 c72:	85 bf       	out	0x35, r24	; 53
 c74:	88 95       	sleep
 c76:	85 b7       	in	r24, 0x35	; 53
 c78:	8f 7d       	andi	r24, 0xDF	; 223
 c7a:	85 bf       	out	0x35, r24	; 53
	GIMSK = 0;						// disable all external interrupts (including pin change)
 c7c:	1b be       	out	0x3b, r1	; 59
	dmPrintChar(131);				// happy smiley
 c7e:	83 e8       	ldi	r24, 0x83	; 131
 c80:	f8 de       	rcall	.-528    	; 0xa72 <dmPrintChar>
 c82:	8f e7       	ldi	r24, 0x7F	; 127
 c84:	9a e1       	ldi	r25, 0x1A	; 26
 c86:	a6 e0       	ldi	r26, 0x06	; 6
 c88:	81 50       	subi	r24, 0x01	; 1
 c8a:	90 40       	sbci	r25, 0x00	; 0
 c8c:	a0 40       	sbci	r26, 0x00	; 0
 c8e:	e1 f7       	brne	.-8      	; 0xc88 <GoToSleep+0x3e>
 c90:	00 c0       	rjmp	.+0      	; 0xc92 <GoToSleep+0x48>
 c92:	00 00       	nop
	_delay_ms(500);
	msg_ptr = DisplayMessage((uint8_t*) messages);
 c94:	80 e0       	ldi	r24, 0x00	; 0
 c96:	90 e0       	ldi	r25, 0x00	; 0
 c98:	6f df       	rcall	.-290    	; 0xb78 <DisplayMessage>
 c9a:	90 93 38 01 	sts	0x0138, r25
 c9e:	80 93 37 01 	sts	0x0137, r24
}
 ca2:	08 95       	ret

00000ca4 <__vector_13>:
 * interrupt service routines *
 ******************************/

ISR(TIMER0_COMPA_vect)
// display interrupt
{
 ca4:	1f 92       	push	r1
 ca6:	0f 92       	push	r0
 ca8:	0f b6       	in	r0, 0x3f	; 63
 caa:	0f 92       	push	r0
 cac:	11 24       	eor	r1, r1
 cae:	2f 93       	push	r18
 cb0:	3f 93       	push	r19
 cb2:	4f 93       	push	r20
 cb4:	5f 93       	push	r21
 cb6:	6f 93       	push	r22
 cb8:	7f 93       	push	r23
 cba:	8f 93       	push	r24
 cbc:	9f 93       	push	r25
 cbe:	af 93       	push	r26
 cc0:	bf 93       	push	r27
 cc2:	ef 93       	push	r30
 cc4:	ff 93       	push	r31
	OCR0A += OCR0A_CYCLE_TIME;				// setup next cycle
 cc6:	86 b7       	in	r24, 0x36	; 54
 cc8:	8c 5f       	subi	r24, 0xFC	; 252
 cca:	86 bf       	out	0x36, r24	; 54

	dmDisplay();							// show next column on dot matrix display
 ccc:	e4 dd       	rcall	.-1080   	; 0x896 <dmDisplay>
}
 cce:	ff 91       	pop	r31
 cd0:	ef 91       	pop	r30
 cd2:	bf 91       	pop	r27
 cd4:	af 91       	pop	r26
 cd6:	9f 91       	pop	r25
 cd8:	8f 91       	pop	r24
 cda:	7f 91       	pop	r23
 cdc:	6f 91       	pop	r22
 cde:	5f 91       	pop	r21
 ce0:	4f 91       	pop	r20
 ce2:	3f 91       	pop	r19
 ce4:	2f 91       	pop	r18
 ce6:	0f 90       	pop	r0
 ce8:	0f be       	out	0x3f, r0	; 63
 cea:	0f 90       	pop	r0
 cec:	1f 90       	pop	r1
 cee:	18 95       	reti

00000cf0 <__vector_14>:


ISR(TIMER0_COMPB_vect)
// system timer interrupt
{
 cf0:	1f 92       	push	r1
 cf2:	0f 92       	push	r0
 cf4:	0f b6       	in	r0, 0x3f	; 63
 cf6:	0f 92       	push	r0
 cf8:	11 24       	eor	r1, r1
 cfa:	2f 93       	push	r18
 cfc:	3f 93       	push	r19
 cfe:	4f 93       	push	r20
 d00:	5f 93       	push	r21
 d02:	6f 93       	push	r22
 d04:	7f 93       	push	r23
 d06:	8f 93       	push	r24
 d08:	9f 93       	push	r25
 d0a:	af 93       	push	r26
 d0c:	bf 93       	push	r27
 d0e:	ef 93       	push	r30
 d10:	ff 93       	push	r31
	static uint8_t scroll_timer = 1;
	static uint8_t pb_timer = 0;			// push button timer
	uint8_t temp;
		
	OCR0B += OCR0B_CYCLE_TIME;				// setup next cycle
 d12:	8c b7       	in	r24, 0x3c	; 60
 d14:	89 5d       	subi	r24, 0xD9	; 217
 d16:	8c bf       	out	0x3c, r24	; 60

	if (scroll_timer) {
 d18:	80 91 64 00 	lds	r24, 0x0064
 d1c:	88 23       	and	r24, r24
 d1e:	21 f0       	breq	.+8      	; 0xd28 <__vector_14+0x38>
		scroll_timer--;
 d20:	81 50       	subi	r24, 0x01	; 1
 d22:	80 93 64 00 	sts	0x0064, r24
 d26:	05 c0       	rjmp	.+10     	; 0xd32 <__vector_14+0x42>
	}
	else {
		scroll_timer = scroll_speed;		// restart timer
 d28:	80 91 63 00 	lds	r24, 0x0063
 d2c:	80 93 64 00 	sts	0x0064, r24
		dmScroll();							// do a scrolling step
 d30:	1f de       	rcall	.-962    	; 0x970 <dmScroll>
	}
	
	// push button sampling
	temp = ~PB_PIN;							// sample push button
 d32:	80 b3       	in	r24, 0x10	; 16
	temp &= PB_MASK;						// extract push button state
	if (temp == 0) {						// --- button not pressed ---
 d34:	86 ff       	sbrs	r24, 6
 d36:	08 c0       	rjmp	.+16     	; 0xd48 <__vector_14+0x58>
		if (button & PB_PRESS) {			// former state = pressed?
 d38:	80 91 62 00 	lds	r24, 0x0062
 d3c:	80 ff       	sbrs	r24, 0
 d3e:	1c c0       	rjmp	.+56     	; 0xd78 <__vector_14+0x88>
			button &= ~(PB_PRESS | PB_ACK);	// -> issue release event
 d40:	80 91 62 00 	lds	r24, 0x0062
 d44:	8e 77       	andi	r24, 0x7E	; 126
 d46:	12 c0       	rjmp	.+36     	; 0xd6c <__vector_14+0x7c>
		}
	}
	else {									// --- button pressed ---
		if ((button & PB_PRESS) == 0) {		// former state = button released?
 d48:	80 91 62 00 	lds	r24, 0x0062
 d4c:	80 fd       	sbrc	r24, 0
 d4e:	05 c0       	rjmp	.+10     	; 0xd5a <__vector_14+0x6a>
			button = PB_PRESS;				// issue new press event
 d50:	81 e0       	ldi	r24, 0x01	; 1
 d52:	80 93 62 00 	sts	0x0062, r24
			pb_timer = PB_LONGPRESS_DELAY;	// start push button timer
 d56:	84 e6       	ldi	r24, 0x64	; 100
 d58:	0d c0       	rjmp	.+26     	; 0xd74 <__vector_14+0x84>
		}
		else {
			if (button == PB_PRESS) {		// holding key pressed
 d5a:	80 91 62 00 	lds	r24, 0x0062
 d5e:	81 30       	cpi	r24, 0x01	; 1
 d60:	59 f4       	brne	.+22     	; 0xd78 <__vector_14+0x88>
				if (pb_timer == 0) {		// if push button timer has elapsed
 d62:	80 91 66 00 	lds	r24, 0x0066
 d66:	88 23       	and	r24, r24
 d68:	21 f4       	brne	.+8      	; 0xd72 <__vector_14+0x82>
					button = PB_LONGPRESS;	// issue long event
 d6a:	83 e0       	ldi	r24, 0x03	; 3
 d6c:	80 93 62 00 	sts	0x0062, r24
 d70:	03 c0       	rjmp	.+6      	; 0xd78 <__vector_14+0x88>
				}
				else {
					pb_timer--;
 d72:	81 50       	subi	r24, 0x01	; 1
 d74:	80 93 66 00 	sts	0x0066, r24
				}
			}			
		}		
	}
	
}
 d78:	ff 91       	pop	r31
 d7a:	ef 91       	pop	r30
 d7c:	bf 91       	pop	r27
 d7e:	af 91       	pop	r26
 d80:	9f 91       	pop	r25
 d82:	8f 91       	pop	r24
 d84:	7f 91       	pop	r23
 d86:	6f 91       	pop	r22
 d88:	5f 91       	pop	r21
 d8a:	4f 91       	pop	r20
 d8c:	3f 91       	pop	r19
 d8e:	2f 91       	pop	r18
 d90:	0f 90       	pop	r0
 d92:	0f be       	out	0x3f, r0	; 63
 d94:	0f 90       	pop	r0
 d96:	1f 90       	pop	r1
 d98:	18 95       	reti

00000d9a <__vector_20>:


ISR(PCINT_D_vect)
// pin change interrupt (for wake-up)
{
 d9a:	1f 92       	push	r1
 d9c:	0f 92       	push	r0
 d9e:	0f b6       	in	r0, 0x3f	; 63
 da0:	0f 92       	push	r0
 da2:	11 24       	eor	r1, r1
}
 da4:	0f 90       	pop	r0
 da6:	0f be       	out	0x3f, r0	; 63
 da8:	0f 90       	pop	r0
 daa:	1f 90       	pop	r1
 dac:	18 95       	reti

00000dae <__vector_7>:



ISR(USART0_RX_vect)
{
 dae:	1f 92       	push	r1
 db0:	0f 92       	push	r0
 db2:	0f b6       	in	r0, 0x3f	; 63
 db4:	0f 92       	push	r0
 db6:	11 24       	eor	r1, r1
 db8:	2f 93       	push	r18
 dba:	3f 93       	push	r19
 dbc:	4f 93       	push	r20
 dbe:	5f 93       	push	r21
 dc0:	6f 93       	push	r22
 dc2:	7f 93       	push	r23
 dc4:	8f 93       	push	r24
 dc6:	9f 93       	push	r25
 dc8:	af 93       	push	r26
 dca:	bf 93       	push	r27
 dcc:	cf 93       	push	r28
 dce:	ef 93       	push	r30
 dd0:	ff 93       	push	r31
	static uint8_t state = IDLE;
	static uint8_t val;
	uint8_t ch;

	if (UCSRA & (1<<FE)) { return; }	// framing error? -> return
 dd2:	5c 99       	sbic	0x0b, 4	; 11
 dd4:	9b c0       	rjmp	.+310    	; 0xf0c <__vector_7+0x15e>
	ch = UDR;							// read received character
 dd6:	cc b1       	in	r28, 0x0c	; 12
	if (ch == 27) { state = RESET; }	// <ESC> resets the state machine
 dd8:	cb 31       	cpi	r28, 0x1B	; 27
 dda:	19 f4       	brne	.+6      	; 0xde2 <__vector_7+0x34>
 ddc:	82 e0       	ldi	r24, 0x02	; 2
 dde:	80 93 67 00 	sts	0x0067, r24
	if (state >= EE_NORMAL) {
 de2:	80 91 67 00 	lds	r24, 0x0067
 de6:	85 30       	cpi	r24, 0x05	; 5
 de8:	18 f0       	brcs	.+6      	; 0xdf0 <__vector_7+0x42>
		dmClearDisplay();
 dea:	0e de       	rcall	.-996    	; 0xa08 <dmClearDisplay>
		dmPrintChar(ch);
 dec:	8c 2f       	mov	r24, r28
 dee:	41 de       	rcall	.-894    	; 0xa72 <dmPrintChar>
	}	

	switch (state) {
 df0:	e0 91 67 00 	lds	r30, 0x0067
 df4:	f0 e0       	ldi	r31, 0x00	; 0
 df6:	e8 30       	cpi	r30, 0x08	; 8
 df8:	f1 05       	cpc	r31, r1
 dfa:	08 f0       	brcs	.+2      	; 0xdfe <__vector_7+0x50>
 dfc:	87 c0       	rjmp	.+270    	; 0xf0c <__vector_7+0x15e>
 dfe:	eb 5e       	subi	r30, 0xEB	; 235
 e00:	ff 4f       	sbci	r31, 0xFF	; 255
 e02:	09 94       	ijmp
		case IDLE:
			if (ch == AUTH1_CHAR)	{ state = AUTH; }
 e04:	c8 34       	cpi	r28, 0x48	; 72
 e06:	09 f0       	breq	.+2      	; 0xe0a <__vector_7+0x5c>
 e08:	81 c0       	rjmp	.+258    	; 0xf0c <__vector_7+0x15e>
 e0a:	81 e0       	ldi	r24, 0x01	; 1
 e0c:	75 c0       	rjmp	.+234    	; 0xef8 <__vector_7+0x14a>
			else					{ state = IDLE; }
			break;
		case AUTH:
			if (ch == EE_AUTH2_CHAR)		{ state = EE_NORMAL; }
 e0e:	cc 34       	cpi	r28, 0x4C	; 76
 e10:	09 f4       	brne	.+2      	; 0xe14 <__vector_7+0x66>
 e12:	71 c0       	rjmp	.+226    	; 0xef6 <__vector_7+0x148>
			else if (ch == DISP_AUTH2_CHAR)	{ state = DISP_SET_MODE; }
 e14:	c4 34       	cpi	r28, 0x44	; 68
 e16:	79 f4       	brne	.+30     	; 0xe36 <__vector_7+0x88>
 e18:	83 e0       	ldi	r24, 0x03	; 3
 e1a:	6e c0       	rjmp	.+220    	; 0xef8 <__vector_7+0x14a>
			else							{ state = IDLE; }
			break;
		case RESET:
			msg_ptr = (uint8_t*) messages;
 e1c:	80 e0       	ldi	r24, 0x00	; 0
 e1e:	90 e0       	ldi	r25, 0x00	; 0
 e20:	90 93 38 01 	sts	0x0138, r25
 e24:	80 93 37 01 	sts	0x0137, r24
			ee_write_ptr = (uint8_t*) messages;
 e28:	90 93 61 00 	sts	0x0061, r25
 e2c:	80 93 60 00 	sts	0x0060, r24
			dmClearDisplay();
 e30:	eb dd       	rcall	.-1066   	; 0xa08 <dmClearDisplay>
			dmPrintChar(129);						// show logo
 e32:	81 e8       	ldi	r24, 0x81	; 129
 e34:	1e de       	rcall	.-964    	; 0xa72 <dmPrintChar>
			state = IDLE;
 e36:	10 92 67 00 	sts	0x0067, r1
			break;
 e3a:	68 c0       	rjmp	.+208    	; 0xf0c <__vector_7+0x15e>
		case DISP_SET_MODE:
			dmClearDisplay();
 e3c:	e5 dd       	rcall	.-1078   	; 0xa08 <dmClearDisplay>
			SetMode(ch);
 e3e:	8c 2f       	mov	r24, r28
 e40:	7d de       	rcall	.-774    	; 0xb3c <SetMode>
			state = DISP_CHAR;
 e42:	84 e0       	ldi	r24, 0x04	; 4
 e44:	59 c0       	rjmp	.+178    	; 0xef8 <__vector_7+0x14a>
			break;
		case DISP_CHAR:
			if ((ch == 13) || (ch == 10)) {	dmClearDisplay(); }		// chr(13) = <CR>, chr(10) = <LF>
 e46:	cd 30       	cpi	r28, 0x0D	; 13
 e48:	11 f0       	breq	.+4      	; 0xe4e <__vector_7+0xa0>
 e4a:	ca 30       	cpi	r28, 0x0A	; 10
 e4c:	11 f4       	brne	.+4      	; 0xe52 <__vector_7+0xa4>
 e4e:	dc dd       	rcall	.-1096   	; 0xa08 <dmClearDisplay>
 e50:	5d c0       	rjmp	.+186    	; 0xf0c <__vector_7+0x15e>
			else { dmPrintChar(ch); dmPrintByte(0); }				// print character followed by empty column
 e52:	8c 2f       	mov	r24, r28
 e54:	0e de       	rcall	.-996    	; 0xa72 <dmPrintChar>
 e56:	80 e0       	ldi	r24, 0x00	; 0
 e58:	ff dd       	rcall	.-1026   	; 0xa58 <dmPrintByte>
 e5a:	58 c0       	rjmp	.+176    	; 0xf0c <__vector_7+0x15e>
			break;
		case EE_NORMAL:
			if (ch == '^') { state = EE_SPECIAL_CHAR; }
 e5c:	ce 35       	cpi	r28, 0x5E	; 94
 e5e:	11 f4       	brne	.+4      	; 0xe64 <__vector_7+0xb6>
 e60:	86 e0       	ldi	r24, 0x06	; 6
 e62:	4a c0       	rjmp	.+148    	; 0xef8 <__vector_7+0x14a>
			else if (ch == '$') { val = 0;  state = EE_HEX_CODE; }
 e64:	c4 32       	cpi	r28, 0x24	; 36
 e66:	21 f4       	brne	.+8      	; 0xe70 <__vector_7+0xc2>
 e68:	10 92 68 00 	sts	0x0068, r1
 e6c:	87 e0       	ldi	r24, 0x07	; 7
 e6e:	44 c0       	rjmp	.+136    	; 0xef8 <__vector_7+0x14a>
			else if ((ch == 13) || (ch == 10)) {	// chr(13) = <CR>, chr(10) = <LF>
 e70:	cd 30       	cpi	r28, 0x0D	; 13
 e72:	11 f0       	breq	.+4      	; 0xe78 <__vector_7+0xca>
 e74:	ca 30       	cpi	r28, 0x0A	; 10
 e76:	69 f4       	brne	.+26     	; 0xe92 <__vector_7+0xe4>
				eeprom_write_byte(ee_write_ptr++, 0);
 e78:	80 91 60 00 	lds	r24, 0x0060
 e7c:	90 91 61 00 	lds	r25, 0x0061
 e80:	9c 01       	movw	r18, r24
 e82:	2f 5f       	subi	r18, 0xFF	; 255
 e84:	3f 4f       	sbci	r19, 0xFF	; 255
 e86:	30 93 61 00 	sts	0x0061, r19
 e8a:	20 93 60 00 	sts	0x0060, r18
 e8e:	60 e0       	ldi	r22, 0x00	; 0
 e90:	0e c0       	rjmp	.+28     	; 0xeae <__vector_7+0x100>
			}
			else if (ch >= ' ') {					// ignore non-printing characters
 e92:	c0 32       	cpi	r28, 0x20	; 32
 e94:	d8 f1       	brcs	.+118    	; 0xf0c <__vector_7+0x15e>
				eeprom_write_byte(ee_write_ptr++, ch);
 e96:	20 91 60 00 	lds	r18, 0x0060
 e9a:	30 91 61 00 	lds	r19, 0x0061
 e9e:	c9 01       	movw	r24, r18
 ea0:	01 96       	adiw	r24, 0x01	; 1
 ea2:	90 93 61 00 	sts	0x0061, r25
 ea6:	80 93 60 00 	sts	0x0060, r24
 eaa:	c9 01       	movw	r24, r18
 eac:	6c 2f       	mov	r22, r28
 eae:	74 d0       	rcall	.+232    	; 0xf98 <__eewr_byte_tn4313>
 eb0:	2d c0       	rjmp	.+90     	; 0xf0c <__vector_7+0x15e>
			}
			break;
		case EE_SPECIAL_CHAR:
			eeprom_write_byte(ee_write_ptr++, ch+63);
 eb2:	20 91 60 00 	lds	r18, 0x0060
 eb6:	30 91 61 00 	lds	r19, 0x0061
 eba:	c9 01       	movw	r24, r18
 ebc:	01 96       	adiw	r24, 0x01	; 1
 ebe:	90 93 61 00 	sts	0x0061, r25
 ec2:	80 93 60 00 	sts	0x0060, r24
 ec6:	6c 2f       	mov	r22, r28
 ec8:	61 5c       	subi	r22, 0xC1	; 193
 eca:	c9 01       	movw	r24, r18
 ecc:	13 c0       	rjmp	.+38     	; 0xef4 <__vector_7+0x146>
			state = EE_NORMAL;
			break;
		case EE_HEX_CODE:
			if (ch >= 'A') { ch -= ('A' - '9' - 1); }
 ece:	c1 34       	cpi	r28, 0x41	; 65
 ed0:	08 f0       	brcs	.+2      	; 0xed4 <__vector_7+0x126>
 ed2:	c7 50       	subi	r28, 0x07	; 7
			ch -= '0';								// map characters '0'..'9' and 'A'..'F' to values 0..15
 ed4:	c0 53       	subi	r28, 0x30	; 48
			if (ch > 15) {							// any character below '0' or above 'F' terminates hex input
 ed6:	c0 31       	cpi	r28, 0x10	; 16
 ed8:	90 f0       	brcs	.+36     	; 0xefe <__vector_7+0x150>
				eeprom_write_byte(ee_write_ptr++, val);
 eda:	80 91 60 00 	lds	r24, 0x0060
 ede:	90 91 61 00 	lds	r25, 0x0061
 ee2:	9c 01       	movw	r18, r24
 ee4:	2f 5f       	subi	r18, 0xFF	; 255
 ee6:	3f 4f       	sbci	r19, 0xFF	; 255
 ee8:	30 93 61 00 	sts	0x0061, r19
 eec:	20 93 60 00 	sts	0x0060, r18
 ef0:	60 91 68 00 	lds	r22, 0x0068
 ef4:	51 d0       	rcall	.+162    	; 0xf98 <__eewr_byte_tn4313>
				state = EE_NORMAL;
 ef6:	85 e0       	ldi	r24, 0x05	; 5
 ef8:	80 93 67 00 	sts	0x0067, r24
 efc:	07 c0       	rjmp	.+14     	; 0xf0c <__vector_7+0x15e>
			}
			else { val <<= 4;  val += ch; }
 efe:	80 91 68 00 	lds	r24, 0x0068
 f02:	82 95       	swap	r24
 f04:	80 7f       	andi	r24, 0xF0	; 240
 f06:	8c 0f       	add	r24, r28
 f08:	80 93 68 00 	sts	0x0068, r24
			break;
	}
}
 f0c:	ff 91       	pop	r31
 f0e:	ef 91       	pop	r30
 f10:	cf 91       	pop	r28
 f12:	bf 91       	pop	r27
 f14:	af 91       	pop	r26
 f16:	9f 91       	pop	r25
 f18:	8f 91       	pop	r24
 f1a:	7f 91       	pop	r23
 f1c:	6f 91       	pop	r22
 f1e:	5f 91       	pop	r21
 f20:	4f 91       	pop	r20
 f22:	3f 91       	pop	r19
 f24:	2f 91       	pop	r18
 f26:	0f 90       	pop	r0
 f28:	0f be       	out	0x3f, r0	; 63
 f2a:	0f 90       	pop	r0
 f2c:	1f 90       	pop	r1
 f2e:	18 95       	reti

00000f30 <main>:
 * main *
 ********/

int main(void)
{
	InitHardware();
 f30:	e4 dd       	rcall	.-1080   	; 0xafa <InitHardware>
	dmInit();
 f32:	79 dd       	rcall	.-1294   	; 0xa26 <dmInit>
	sei();									// enable interrupts
 f34:	78 94       	sei

	GoToSleep();
 f36:	89 de       	rcall	.-750    	; 0xc4a <GoToSleep>
	button |= PB_ACK;
 f38:	80 91 62 00 	lds	r24, 0x0062
 f3c:	80 68       	ori	r24, 0x80	; 128
 f3e:	80 93 62 00 	sts	0x0062, r24

	while(1)
	{
		if (button == PB_RELEASE) {			// short button press
 f42:	80 91 62 00 	lds	r24, 0x0062
 f46:	88 23       	and	r24, r24
 f48:	71 f4       	brne	.+28     	; 0xf66 <main+0x36>
			msg_ptr = DisplayMessage(msg_ptr);
 f4a:	80 91 37 01 	lds	r24, 0x0137
 f4e:	90 91 38 01 	lds	r25, 0x0138
 f52:	12 de       	rcall	.-988    	; 0xb78 <DisplayMessage>
 f54:	90 93 38 01 	sts	0x0138, r25
 f58:	80 93 37 01 	sts	0x0137, r24
			button |= PB_ACK;
 f5c:	80 91 62 00 	lds	r24, 0x0062
 f60:	80 68       	ori	r24, 0x80	; 128
 f62:	80 93 62 00 	sts	0x0062, r24
		}
		
		if (button == PB_LONGPRESS) {		// button pressed for some seconds
 f66:	80 91 62 00 	lds	r24, 0x0062
 f6a:	83 30       	cpi	r24, 0x03	; 3
 f6c:	51 f7       	brne	.-44     	; 0xf42 <main+0x12>
			dmClearDisplay();
 f6e:	4c dd       	rcall	.-1384   	; 0xa08 <dmClearDisplay>
			dmPrintChar(130);				// sad smiley
 f70:	82 e8       	ldi	r24, 0x82	; 130
 f72:	7f dd       	rcall	.-1282   	; 0xa72 <dmPrintChar>
 f74:	8f e7       	ldi	r24, 0x7F	; 127
 f76:	9a e1       	ldi	r25, 0x1A	; 26
 f78:	a6 e0       	ldi	r26, 0x06	; 6
 f7a:	81 50       	subi	r24, 0x01	; 1
 f7c:	90 40       	sbci	r25, 0x00	; 0
 f7e:	a0 40       	sbci	r26, 0x00	; 0
 f80:	e1 f7       	brne	.-8      	; 0xf7a <main+0x4a>
 f82:	00 c0       	rjmp	.+0      	; 0xf84 <main+0x54>
 f84:	00 00       	nop
 f86:	d7 cf       	rjmp	.-82     	; 0xf36 <main+0x6>

00000f88 <__eerd_byte_tn4313>:
 f88:	e1 99       	sbic	0x1c, 1	; 28
 f8a:	fe cf       	rjmp	.-4      	; 0xf88 <__eerd_byte_tn4313>
 f8c:	1f ba       	out	0x1f, r1	; 31
 f8e:	8e bb       	out	0x1e, r24	; 30
 f90:	e0 9a       	sbi	0x1c, 0	; 28
 f92:	99 27       	eor	r25, r25
 f94:	8d b3       	in	r24, 0x1d	; 29
 f96:	08 95       	ret

00000f98 <__eewr_byte_tn4313>:
 f98:	26 2f       	mov	r18, r22

00000f9a <__eewr_r18_tn4313>:
 f9a:	e1 99       	sbic	0x1c, 1	; 28
 f9c:	fe cf       	rjmp	.-4      	; 0xf9a <__eewr_r18_tn4313>
 f9e:	1c ba       	out	0x1c, r1	; 28
 fa0:	1f ba       	out	0x1f, r1	; 31
 fa2:	8e bb       	out	0x1e, r24	; 30
 fa4:	2d bb       	out	0x1d, r18	; 29
 fa6:	0f b6       	in	r0, 0x3f	; 63
 fa8:	f8 94       	cli
 faa:	e2 9a       	sbi	0x1c, 2	; 28
 fac:	e1 9a       	sbi	0x1c, 1	; 28
 fae:	0f be       	out	0x3f, r0	; 63
 fb0:	01 96       	adiw	r24, 0x01	; 1
 fb2:	08 95       	ret

00000fb4 <_exit>:
 fb4:	f8 94       	cli

00000fb6 <__stop_program>:
 fb6:	ff cf       	rjmp	.-2      	; 0xfb6 <__stop_program>
